
rtarget:     file format elf64-x86-64


Disassembly of section .init:

0000000000400c48 <_init>:
  400c48:	48 83 ec 08          	sub    $0x8,%rsp
  400c4c:	48 8b 05 a5 43 20 00 	mov    0x2043a5(%rip),%rax        # 604ff8 <__gmon_start__>
  400c53:	48 85 c0             	test   %rax,%rax
  400c56:	74 02                	je     400c5a <_init+0x12>
  400c58:	ff d0                	callq  *%rax
  400c5a:	48 83 c4 08          	add    $0x8,%rsp
  400c5e:	c3                   	retq   

Disassembly of section .plt:

0000000000400c60 <.plt>:
  400c60:	ff 35 a2 43 20 00    	pushq  0x2043a2(%rip)        # 605008 <_GLOBAL_OFFSET_TABLE_+0x8>
  400c66:	ff 25 a4 43 20 00    	jmpq   *0x2043a4(%rip)        # 605010 <_GLOBAL_OFFSET_TABLE_+0x10>
  400c6c:	0f 1f 40 00          	nopl   0x0(%rax)

0000000000400c70 <strcasecmp@plt>:
  400c70:	ff 25 a2 43 20 00    	jmpq   *0x2043a2(%rip)        # 605018 <strcasecmp@GLIBC_2.2.5>
  400c76:	68 00 00 00 00       	pushq  $0x0
  400c7b:	e9 e0 ff ff ff       	jmpq   400c60 <.plt>

0000000000400c80 <__errno_location@plt>:
  400c80:	ff 25 9a 43 20 00    	jmpq   *0x20439a(%rip)        # 605020 <__errno_location@GLIBC_2.2.5>
  400c86:	68 01 00 00 00       	pushq  $0x1
  400c8b:	e9 d0 ff ff ff       	jmpq   400c60 <.plt>

0000000000400c90 <srandom@plt>:
  400c90:	ff 25 92 43 20 00    	jmpq   *0x204392(%rip)        # 605028 <srandom@GLIBC_2.2.5>
  400c96:	68 02 00 00 00       	pushq  $0x2
  400c9b:	e9 c0 ff ff ff       	jmpq   400c60 <.plt>

0000000000400ca0 <strncmp@plt>:
  400ca0:	ff 25 8a 43 20 00    	jmpq   *0x20438a(%rip)        # 605030 <strncmp@GLIBC_2.2.5>
  400ca6:	68 03 00 00 00       	pushq  $0x3
  400cab:	e9 b0 ff ff ff       	jmpq   400c60 <.plt>

0000000000400cb0 <strcpy@plt>:
  400cb0:	ff 25 82 43 20 00    	jmpq   *0x204382(%rip)        # 605038 <strcpy@GLIBC_2.2.5>
  400cb6:	68 04 00 00 00       	pushq  $0x4
  400cbb:	e9 a0 ff ff ff       	jmpq   400c60 <.plt>

0000000000400cc0 <puts@plt>:
  400cc0:	ff 25 7a 43 20 00    	jmpq   *0x20437a(%rip)        # 605040 <puts@GLIBC_2.2.5>
  400cc6:	68 05 00 00 00       	pushq  $0x5
  400ccb:	e9 90 ff ff ff       	jmpq   400c60 <.plt>

0000000000400cd0 <write@plt>:
  400cd0:	ff 25 72 43 20 00    	jmpq   *0x204372(%rip)        # 605048 <write@GLIBC_2.2.5>
  400cd6:	68 06 00 00 00       	pushq  $0x6
  400cdb:	e9 80 ff ff ff       	jmpq   400c60 <.plt>

0000000000400ce0 <__stack_chk_fail@plt>:
  400ce0:	ff 25 6a 43 20 00    	jmpq   *0x20436a(%rip)        # 605050 <__stack_chk_fail@GLIBC_2.4>
  400ce6:	68 07 00 00 00       	pushq  $0x7
  400ceb:	e9 70 ff ff ff       	jmpq   400c60 <.plt>

0000000000400cf0 <mmap@plt>:
  400cf0:	ff 25 62 43 20 00    	jmpq   *0x204362(%rip)        # 605058 <mmap@GLIBC_2.2.5>
  400cf6:	68 08 00 00 00       	pushq  $0x8
  400cfb:	e9 60 ff ff ff       	jmpq   400c60 <.plt>

0000000000400d00 <memset@plt>:
  400d00:	ff 25 5a 43 20 00    	jmpq   *0x20435a(%rip)        # 605060 <memset@GLIBC_2.2.5>
  400d06:	68 09 00 00 00       	pushq  $0x9
  400d0b:	e9 50 ff ff ff       	jmpq   400c60 <.plt>

0000000000400d10 <alarm@plt>:
  400d10:	ff 25 52 43 20 00    	jmpq   *0x204352(%rip)        # 605068 <alarm@GLIBC_2.2.5>
  400d16:	68 0a 00 00 00       	pushq  $0xa
  400d1b:	e9 40 ff ff ff       	jmpq   400c60 <.plt>

0000000000400d20 <close@plt>:
  400d20:	ff 25 4a 43 20 00    	jmpq   *0x20434a(%rip)        # 605070 <close@GLIBC_2.2.5>
  400d26:	68 0b 00 00 00       	pushq  $0xb
  400d2b:	e9 30 ff ff ff       	jmpq   400c60 <.plt>

0000000000400d30 <read@plt>:
  400d30:	ff 25 42 43 20 00    	jmpq   *0x204342(%rip)        # 605078 <read@GLIBC_2.2.5>
  400d36:	68 0c 00 00 00       	pushq  $0xc
  400d3b:	e9 20 ff ff ff       	jmpq   400c60 <.plt>

0000000000400d40 <signal@plt>:
  400d40:	ff 25 3a 43 20 00    	jmpq   *0x20433a(%rip)        # 605080 <signal@GLIBC_2.2.5>
  400d46:	68 0d 00 00 00       	pushq  $0xd
  400d4b:	e9 10 ff ff ff       	jmpq   400c60 <.plt>

0000000000400d50 <gethostbyname@plt>:
  400d50:	ff 25 32 43 20 00    	jmpq   *0x204332(%rip)        # 605088 <gethostbyname@GLIBC_2.2.5>
  400d56:	68 0e 00 00 00       	pushq  $0xe
  400d5b:	e9 00 ff ff ff       	jmpq   400c60 <.plt>

0000000000400d60 <__memmove_chk@plt>:
  400d60:	ff 25 2a 43 20 00    	jmpq   *0x20432a(%rip)        # 605090 <__memmove_chk@GLIBC_2.3.4>
  400d66:	68 0f 00 00 00       	pushq  $0xf
  400d6b:	e9 f0 fe ff ff       	jmpq   400c60 <.plt>

0000000000400d70 <strtol@plt>:
  400d70:	ff 25 22 43 20 00    	jmpq   *0x204322(%rip)        # 605098 <strtol@GLIBC_2.2.5>
  400d76:	68 10 00 00 00       	pushq  $0x10
  400d7b:	e9 e0 fe ff ff       	jmpq   400c60 <.plt>

0000000000400d80 <memcpy@plt>:
  400d80:	ff 25 1a 43 20 00    	jmpq   *0x20431a(%rip)        # 6050a0 <memcpy@GLIBC_2.14>
  400d86:	68 11 00 00 00       	pushq  $0x11
  400d8b:	e9 d0 fe ff ff       	jmpq   400c60 <.plt>

0000000000400d90 <time@plt>:
  400d90:	ff 25 12 43 20 00    	jmpq   *0x204312(%rip)        # 6050a8 <time@GLIBC_2.2.5>
  400d96:	68 12 00 00 00       	pushq  $0x12
  400d9b:	e9 c0 fe ff ff       	jmpq   400c60 <.plt>

0000000000400da0 <random@plt>:
  400da0:	ff 25 0a 43 20 00    	jmpq   *0x20430a(%rip)        # 6050b0 <random@GLIBC_2.2.5>
  400da6:	68 13 00 00 00       	pushq  $0x13
  400dab:	e9 b0 fe ff ff       	jmpq   400c60 <.plt>

0000000000400db0 <_IO_getc@plt>:
  400db0:	ff 25 02 43 20 00    	jmpq   *0x204302(%rip)        # 6050b8 <_IO_getc@GLIBC_2.2.5>
  400db6:	68 14 00 00 00       	pushq  $0x14
  400dbb:	e9 a0 fe ff ff       	jmpq   400c60 <.plt>

0000000000400dc0 <__isoc99_sscanf@plt>:
  400dc0:	ff 25 fa 42 20 00    	jmpq   *0x2042fa(%rip)        # 6050c0 <__isoc99_sscanf@GLIBC_2.7>
  400dc6:	68 15 00 00 00       	pushq  $0x15
  400dcb:	e9 90 fe ff ff       	jmpq   400c60 <.plt>

0000000000400dd0 <munmap@plt>:
  400dd0:	ff 25 f2 42 20 00    	jmpq   *0x2042f2(%rip)        # 6050c8 <munmap@GLIBC_2.2.5>
  400dd6:	68 16 00 00 00       	pushq  $0x16
  400ddb:	e9 80 fe ff ff       	jmpq   400c60 <.plt>

0000000000400de0 <__printf_chk@plt>:
  400de0:	ff 25 ea 42 20 00    	jmpq   *0x2042ea(%rip)        # 6050d0 <__printf_chk@GLIBC_2.3.4>
  400de6:	68 17 00 00 00       	pushq  $0x17
  400deb:	e9 70 fe ff ff       	jmpq   400c60 <.plt>

0000000000400df0 <fopen@plt>:
  400df0:	ff 25 e2 42 20 00    	jmpq   *0x2042e2(%rip)        # 6050d8 <fopen@GLIBC_2.2.5>
  400df6:	68 18 00 00 00       	pushq  $0x18
  400dfb:	e9 60 fe ff ff       	jmpq   400c60 <.plt>

0000000000400e00 <getopt@plt>:
  400e00:	ff 25 da 42 20 00    	jmpq   *0x2042da(%rip)        # 6050e0 <getopt@GLIBC_2.2.5>
  400e06:	68 19 00 00 00       	pushq  $0x19
  400e0b:	e9 50 fe ff ff       	jmpq   400c60 <.plt>

0000000000400e10 <strtoul@plt>:
  400e10:	ff 25 d2 42 20 00    	jmpq   *0x2042d2(%rip)        # 6050e8 <strtoul@GLIBC_2.2.5>
  400e16:	68 1a 00 00 00       	pushq  $0x1a
  400e1b:	e9 40 fe ff ff       	jmpq   400c60 <.plt>

0000000000400e20 <gethostname@plt>:
  400e20:	ff 25 ca 42 20 00    	jmpq   *0x2042ca(%rip)        # 6050f0 <gethostname@GLIBC_2.2.5>
  400e26:	68 1b 00 00 00       	pushq  $0x1b
  400e2b:	e9 30 fe ff ff       	jmpq   400c60 <.plt>

0000000000400e30 <exit@plt>:
  400e30:	ff 25 c2 42 20 00    	jmpq   *0x2042c2(%rip)        # 6050f8 <exit@GLIBC_2.2.5>
  400e36:	68 1c 00 00 00       	pushq  $0x1c
  400e3b:	e9 20 fe ff ff       	jmpq   400c60 <.plt>

0000000000400e40 <connect@plt>:
  400e40:	ff 25 ba 42 20 00    	jmpq   *0x2042ba(%rip)        # 605100 <connect@GLIBC_2.2.5>
  400e46:	68 1d 00 00 00       	pushq  $0x1d
  400e4b:	e9 10 fe ff ff       	jmpq   400c60 <.plt>

0000000000400e50 <__fprintf_chk@plt>:
  400e50:	ff 25 b2 42 20 00    	jmpq   *0x2042b2(%rip)        # 605108 <__fprintf_chk@GLIBC_2.3.4>
  400e56:	68 1e 00 00 00       	pushq  $0x1e
  400e5b:	e9 00 fe ff ff       	jmpq   400c60 <.plt>

0000000000400e60 <__sprintf_chk@plt>:
  400e60:	ff 25 aa 42 20 00    	jmpq   *0x2042aa(%rip)        # 605110 <__sprintf_chk@GLIBC_2.3.4>
  400e66:	68 1f 00 00 00       	pushq  $0x1f
  400e6b:	e9 f0 fd ff ff       	jmpq   400c60 <.plt>

0000000000400e70 <socket@plt>:
  400e70:	ff 25 a2 42 20 00    	jmpq   *0x2042a2(%rip)        # 605118 <socket@GLIBC_2.2.5>
  400e76:	68 20 00 00 00       	pushq  $0x20
  400e7b:	e9 e0 fd ff ff       	jmpq   400c60 <.plt>

Disassembly of section .text:

0000000000400e80 <_start>:
  400e80:	31 ed                	xor    %ebp,%ebp
  400e82:	49 89 d1             	mov    %rdx,%r9
  400e85:	5e                   	pop    %rsi
  400e86:	48 89 e2             	mov    %rsp,%rdx
  400e89:	48 83 e4 f0          	and    $0xfffffffffffffff0,%rsp
  400e8d:	50                   	push   %rax
  400e8e:	54                   	push   %rsp
  400e8f:	49 c7 c0 20 2f 40 00 	mov    $0x402f20,%r8
  400e96:	48 c7 c1 b0 2e 40 00 	mov    $0x402eb0,%rcx
  400e9d:	48 c7 c7 73 11 40 00 	mov    $0x401173,%rdi
  400ea4:	ff 15 46 41 20 00    	callq  *0x204146(%rip)        # 604ff0 <__libc_start_main@GLIBC_2.2.5>
  400eaa:	f4                   	hlt    
  400eab:	0f 1f 44 00 00       	nopl   0x0(%rax,%rax,1)

0000000000400eb0 <_dl_relocate_static_pie>:
  400eb0:	f3 c3                	repz retq 
  400eb2:	66 2e 0f 1f 84 00 00 	nopw   %cs:0x0(%rax,%rax,1)
  400eb9:	00 00 00 
  400ebc:	0f 1f 40 00          	nopl   0x0(%rax)

0000000000400ec0 <deregister_tm_clones>:
  400ec0:	55                   	push   %rbp
  400ec1:	b8 90 54 60 00       	mov    $0x605490,%eax
  400ec6:	48 3d 90 54 60 00    	cmp    $0x605490,%rax
  400ecc:	48 89 e5             	mov    %rsp,%rbp
  400ecf:	74 17                	je     400ee8 <deregister_tm_clones+0x28>
  400ed1:	b8 00 00 00 00       	mov    $0x0,%eax
  400ed6:	48 85 c0             	test   %rax,%rax
  400ed9:	74 0d                	je     400ee8 <deregister_tm_clones+0x28>
  400edb:	5d                   	pop    %rbp
  400edc:	bf 90 54 60 00       	mov    $0x605490,%edi
  400ee1:	ff e0                	jmpq   *%rax
  400ee3:	0f 1f 44 00 00       	nopl   0x0(%rax,%rax,1)
  400ee8:	5d                   	pop    %rbp
  400ee9:	c3                   	retq   
  400eea:	66 0f 1f 44 00 00    	nopw   0x0(%rax,%rax,1)

0000000000400ef0 <register_tm_clones>:
  400ef0:	be 90 54 60 00       	mov    $0x605490,%esi
  400ef5:	55                   	push   %rbp
  400ef6:	48 81 ee 90 54 60 00 	sub    $0x605490,%rsi
  400efd:	48 89 e5             	mov    %rsp,%rbp
  400f00:	48 c1 fe 03          	sar    $0x3,%rsi
  400f04:	48 89 f0             	mov    %rsi,%rax
  400f07:	48 c1 e8 3f          	shr    $0x3f,%rax
  400f0b:	48 01 c6             	add    %rax,%rsi
  400f0e:	48 d1 fe             	sar    %rsi
  400f11:	74 15                	je     400f28 <register_tm_clones+0x38>
  400f13:	b8 00 00 00 00       	mov    $0x0,%eax
  400f18:	48 85 c0             	test   %rax,%rax
  400f1b:	74 0b                	je     400f28 <register_tm_clones+0x38>
  400f1d:	5d                   	pop    %rbp
  400f1e:	bf 90 54 60 00       	mov    $0x605490,%edi
  400f23:	ff e0                	jmpq   *%rax
  400f25:	0f 1f 00             	nopl   (%rax)
  400f28:	5d                   	pop    %rbp
  400f29:	c3                   	retq   
  400f2a:	66 0f 1f 44 00 00    	nopw   0x0(%rax,%rax,1)

0000000000400f30 <__do_global_dtors_aux>:
  400f30:	80 3d 91 45 20 00 00 	cmpb   $0x0,0x204591(%rip)        # 6054c8 <completed.7698>
  400f37:	75 17                	jne    400f50 <__do_global_dtors_aux+0x20>
  400f39:	55                   	push   %rbp
  400f3a:	48 89 e5             	mov    %rsp,%rbp
  400f3d:	e8 7e ff ff ff       	callq  400ec0 <deregister_tm_clones>
  400f42:	c6 05 7f 45 20 00 01 	movb   $0x1,0x20457f(%rip)        # 6054c8 <completed.7698>
  400f49:	5d                   	pop    %rbp
  400f4a:	c3                   	retq   
  400f4b:	0f 1f 44 00 00       	nopl   0x0(%rax,%rax,1)
  400f50:	f3 c3                	repz retq 
  400f52:	0f 1f 40 00          	nopl   0x0(%rax)
  400f56:	66 2e 0f 1f 84 00 00 	nopw   %cs:0x0(%rax,%rax,1)
  400f5d:	00 00 00 

0000000000400f60 <frame_dummy>:
  400f60:	55                   	push   %rbp
  400f61:	48 89 e5             	mov    %rsp,%rbp
  400f64:	5d                   	pop    %rbp
  400f65:	eb 89                	jmp    400ef0 <register_tm_clones>

0000000000400f67 <usage>:
  400f67:	48 83 ec 08          	sub    $0x8,%rsp
  400f6b:	48 89 fa             	mov    %rdi,%rdx
  400f6e:	83 3d 93 45 20 00 00 	cmpl   $0x0,0x204593(%rip)        # 605508 <is_checker>
  400f75:	74 46                	je     400fbd <usage+0x56>
  400f77:	be 38 2f 40 00       	mov    $0x402f38,%esi
  400f7c:	bf 01 00 00 00       	mov    $0x1,%edi
  400f81:	b8 00 00 00 00       	mov    $0x0,%eax
  400f86:	e8 55 fe ff ff       	callq  400de0 <__printf_chk@plt>
  400f8b:	bf 70 2f 40 00       	mov    $0x402f70,%edi
  400f90:	e8 2b fd ff ff       	callq  400cc0 <puts@plt>
  400f95:	bf e8 30 40 00       	mov    $0x4030e8,%edi
  400f9a:	e8 21 fd ff ff       	callq  400cc0 <puts@plt>
  400f9f:	bf 98 2f 40 00       	mov    $0x402f98,%edi
  400fa4:	e8 17 fd ff ff       	callq  400cc0 <puts@plt>
  400fa9:	bf 02 31 40 00       	mov    $0x403102,%edi
  400fae:	e8 0d fd ff ff       	callq  400cc0 <puts@plt>
  400fb3:	bf 00 00 00 00       	mov    $0x0,%edi
  400fb8:	e8 73 fe ff ff       	callq  400e30 <exit@plt>
  400fbd:	be 1e 31 40 00       	mov    $0x40311e,%esi
  400fc2:	bf 01 00 00 00       	mov    $0x1,%edi
  400fc7:	b8 00 00 00 00       	mov    $0x0,%eax
  400fcc:	e8 0f fe ff ff       	callq  400de0 <__printf_chk@plt>
  400fd1:	bf c0 2f 40 00       	mov    $0x402fc0,%edi
  400fd6:	e8 e5 fc ff ff       	callq  400cc0 <puts@plt>
  400fdb:	bf e8 2f 40 00       	mov    $0x402fe8,%edi
  400fe0:	e8 db fc ff ff       	callq  400cc0 <puts@plt>
  400fe5:	bf 3c 31 40 00       	mov    $0x40313c,%edi
  400fea:	e8 d1 fc ff ff       	callq  400cc0 <puts@plt>
  400fef:	eb c2                	jmp    400fb3 <usage+0x4c>

0000000000400ff1 <initialize_target>:
  400ff1:	55                   	push   %rbp
  400ff2:	53                   	push   %rbx
  400ff3:	48 81 ec 18 21 00 00 	sub    $0x2118,%rsp
  400ffa:	89 f5                	mov    %esi,%ebp
  400ffc:	64 48 8b 04 25 28 00 	mov    %fs:0x28,%rax
  401003:	00 00 
  401005:	48 89 84 24 08 21 00 	mov    %rax,0x2108(%rsp)
  40100c:	00 
  40100d:	31 c0                	xor    %eax,%eax
  40100f:	89 3d e3 44 20 00    	mov    %edi,0x2044e3(%rip)        # 6054f8 <check_level>
  401015:	8b 3d 2d 41 20 00    	mov    0x20412d(%rip),%edi        # 605148 <target_id>
  40101b:	e8 69 1e 00 00       	callq  402e89 <gencookie>
  401020:	89 05 de 44 20 00    	mov    %eax,0x2044de(%rip)        # 605504 <cookie>
  401026:	89 c7                	mov    %eax,%edi
  401028:	e8 5c 1e 00 00       	callq  402e89 <gencookie>
  40102d:	89 05 cd 44 20 00    	mov    %eax,0x2044cd(%rip)        # 605500 <authkey>
  401033:	8b 05 0f 41 20 00    	mov    0x20410f(%rip),%eax        # 605148 <target_id>
  401039:	8d 78 01             	lea    0x1(%rax),%edi
  40103c:	e8 4f fc ff ff       	callq  400c90 <srandom@plt>
  401041:	e8 5a fd ff ff       	callq  400da0 <random@plt>
  401046:	89 c7                	mov    %eax,%edi
  401048:	e8 f2 02 00 00       	callq  40133f <scramble>
  40104d:	89 c3                	mov    %eax,%ebx
  40104f:	85 ed                	test   %ebp,%ebp
  401051:	75 54                	jne    4010a7 <initialize_target+0xb6>
  401053:	b8 00 00 00 00       	mov    $0x0,%eax
  401058:	01 d8                	add    %ebx,%eax
  40105a:	0f b7 c0             	movzwl %ax,%eax
  40105d:	8d 04 c5 00 01 00 00 	lea    0x100(,%rax,8),%eax
  401064:	89 c0                	mov    %eax,%eax
  401066:	48 89 05 13 44 20 00 	mov    %rax,0x204413(%rip)        # 605480 <buf_offset>
  40106d:	c6 05 b4 50 20 00 72 	movb   $0x72,0x2050b4(%rip)        # 606128 <target_prefix>
  401074:	83 3d 0d 44 20 00 00 	cmpl   $0x0,0x20440d(%rip)        # 605488 <notify>
  40107b:	74 09                	je     401086 <initialize_target+0x95>
  40107d:	83 3d 84 44 20 00 00 	cmpl   $0x0,0x204484(%rip)        # 605508 <is_checker>
  401084:	74 39                	je     4010bf <initialize_target+0xce>
  401086:	48 8b 84 24 08 21 00 	mov    0x2108(%rsp),%rax
  40108d:	00 
  40108e:	64 48 33 04 25 28 00 	xor    %fs:0x28,%rax
  401095:	00 00 
  401097:	0f 85 d1 00 00 00    	jne    40116e <initialize_target+0x17d>
  40109d:	48 81 c4 18 21 00 00 	add    $0x2118,%rsp
  4010a4:	5b                   	pop    %rbx
  4010a5:	5d                   	pop    %rbp
  4010a6:	c3                   	retq   
  4010a7:	bf 00 00 00 00       	mov    $0x0,%edi
  4010ac:	e8 df fc ff ff       	callq  400d90 <time@plt>
  4010b1:	89 c7                	mov    %eax,%edi
  4010b3:	e8 d8 fb ff ff       	callq  400c90 <srandom@plt>
  4010b8:	e8 e3 fc ff ff       	callq  400da0 <random@plt>
  4010bd:	eb 99                	jmp    401058 <initialize_target+0x67>
  4010bf:	be 00 01 00 00       	mov    $0x100,%esi
  4010c4:	48 89 e7             	mov    %rsp,%rdi
  4010c7:	e8 54 fd ff ff       	callq  400e20 <gethostname@plt>
  4010cc:	89 c5                	mov    %eax,%ebp
  4010ce:	85 c0                	test   %eax,%eax
  4010d0:	75 23                	jne    4010f5 <initialize_target+0x104>
  4010d2:	89 c3                	mov    %eax,%ebx
  4010d4:	48 63 c3             	movslq %ebx,%rax
  4010d7:	48 8b 3c c5 60 51 60 	mov    0x605160(,%rax,8),%rdi
  4010de:	00 
  4010df:	48 85 ff             	test   %rdi,%rdi
  4010e2:	74 2a                	je     40110e <initialize_target+0x11d>
  4010e4:	48 89 e6             	mov    %rsp,%rsi
  4010e7:	e8 84 fb ff ff       	callq  400c70 <strcasecmp@plt>
  4010ec:	85 c0                	test   %eax,%eax
  4010ee:	74 19                	je     401109 <initialize_target+0x118>
  4010f0:	83 c3 01             	add    $0x1,%ebx
  4010f3:	eb df                	jmp    4010d4 <initialize_target+0xe3>
  4010f5:	bf 18 30 40 00       	mov    $0x403018,%edi
  4010fa:	e8 c1 fb ff ff       	callq  400cc0 <puts@plt>
  4010ff:	bf 08 00 00 00       	mov    $0x8,%edi
  401104:	e8 27 fd ff ff       	callq  400e30 <exit@plt>
  401109:	bd 01 00 00 00       	mov    $0x1,%ebp
  40110e:	85 ed                	test   %ebp,%ebp
  401110:	74 3b                	je     40114d <initialize_target+0x15c>
  401112:	48 8d bc 24 00 01 00 	lea    0x100(%rsp),%rdi
  401119:	00 
  40111a:	e8 bf 1a 00 00       	callq  402bde <init_driver>
  40111f:	85 c0                	test   %eax,%eax
  401121:	0f 89 5f ff ff ff    	jns    401086 <initialize_target+0x95>
  401127:	48 8d 94 24 00 01 00 	lea    0x100(%rsp),%rdx
  40112e:	00 
  40112f:	be 90 30 40 00       	mov    $0x403090,%esi
  401134:	bf 01 00 00 00       	mov    $0x1,%edi
  401139:	b8 00 00 00 00       	mov    $0x0,%eax
  40113e:	e8 9d fc ff ff       	callq  400de0 <__printf_chk@plt>
  401143:	bf 08 00 00 00       	mov    $0x8,%edi
  401148:	e8 e3 fc ff ff       	callq  400e30 <exit@plt>
  40114d:	48 89 e2             	mov    %rsp,%rdx
  401150:	be 50 30 40 00       	mov    $0x403050,%esi
  401155:	bf 01 00 00 00       	mov    $0x1,%edi
  40115a:	b8 00 00 00 00       	mov    $0x0,%eax
  40115f:	e8 7c fc ff ff       	callq  400de0 <__printf_chk@plt>
  401164:	bf 08 00 00 00       	mov    $0x8,%edi
  401169:	e8 c2 fc ff ff       	callq  400e30 <exit@plt>
  40116e:	e8 6d fb ff ff       	callq  400ce0 <__stack_chk_fail@plt>

0000000000401173 <main>:
  401173:	41 56                	push   %r14
  401175:	41 55                	push   %r13
  401177:	41 54                	push   %r12
  401179:	55                   	push   %rbp
  40117a:	53                   	push   %rbx
  40117b:	41 89 fc             	mov    %edi,%r12d
  40117e:	48 89 f3             	mov    %rsi,%rbx
  401181:	be 1b 1f 40 00       	mov    $0x401f1b,%esi
  401186:	bf 0b 00 00 00       	mov    $0xb,%edi
  40118b:	e8 b0 fb ff ff       	callq  400d40 <signal@plt>
  401190:	be cd 1e 40 00       	mov    $0x401ecd,%esi
  401195:	bf 07 00 00 00       	mov    $0x7,%edi
  40119a:	e8 a1 fb ff ff       	callq  400d40 <signal@plt>
  40119f:	be 69 1f 40 00       	mov    $0x401f69,%esi
  4011a4:	bf 04 00 00 00       	mov    $0x4,%edi
  4011a9:	e8 92 fb ff ff       	callq  400d40 <signal@plt>
  4011ae:	83 3d 53 43 20 00 00 	cmpl   $0x0,0x204353(%rip)        # 605508 <is_checker>
  4011b5:	75 24                	jne    4011db <main+0x68>
  4011b7:	bd 55 31 40 00       	mov    $0x403155,%ebp
  4011bc:	48 8b 05 dd 42 20 00 	mov    0x2042dd(%rip),%rax        # 6054a0 <stdin@@GLIBC_2.2.5>
  4011c3:	48 89 05 26 43 20 00 	mov    %rax,0x204326(%rip)        # 6054f0 <infile>
  4011ca:	41 bd 00 00 00 00    	mov    $0x0,%r13d
  4011d0:	41 be 00 00 00 00    	mov    $0x0,%r14d
  4011d6:	e9 85 00 00 00       	jmpq   401260 <main+0xed>
  4011db:	be b7 1f 40 00       	mov    $0x401fb7,%esi
  4011e0:	bf 0e 00 00 00       	mov    $0xe,%edi
  4011e5:	e8 56 fb ff ff       	callq  400d40 <signal@plt>
  4011ea:	bf 05 00 00 00       	mov    $0x5,%edi
  4011ef:	e8 1c fb ff ff       	callq  400d10 <alarm@plt>
  4011f4:	bd 5a 31 40 00       	mov    $0x40315a,%ebp
  4011f9:	eb c1                	jmp    4011bc <main+0x49>
  4011fb:	48 8b 3b             	mov    (%rbx),%rdi
  4011fe:	e8 64 fd ff ff       	callq  400f67 <usage>
  401203:	be 25 34 40 00       	mov    $0x403425,%esi
  401208:	48 8b 3d 99 42 20 00 	mov    0x204299(%rip),%rdi        # 6054a8 <optarg@@GLIBC_2.2.5>
  40120f:	e8 dc fb ff ff       	callq  400df0 <fopen@plt>
  401214:	48 89 05 d5 42 20 00 	mov    %rax,0x2042d5(%rip)        # 6054f0 <infile>
  40121b:	48 85 c0             	test   %rax,%rax
  40121e:	75 40                	jne    401260 <main+0xed>
  401220:	48 8b 0d 81 42 20 00 	mov    0x204281(%rip),%rcx        # 6054a8 <optarg@@GLIBC_2.2.5>
  401227:	ba 62 31 40 00       	mov    $0x403162,%edx
  40122c:	be 01 00 00 00       	mov    $0x1,%esi
  401231:	48 8b 3d 88 42 20 00 	mov    0x204288(%rip),%rdi        # 6054c0 <stderr@@GLIBC_2.2.5>
  401238:	e8 13 fc ff ff       	callq  400e50 <__fprintf_chk@plt>
  40123d:	b8 01 00 00 00       	mov    $0x1,%eax
  401242:	e9 cc 00 00 00       	jmpq   401313 <main+0x1a0>
  401247:	ba 10 00 00 00       	mov    $0x10,%edx
  40124c:	be 00 00 00 00       	mov    $0x0,%esi
  401251:	48 8b 3d 50 42 20 00 	mov    0x204250(%rip),%rdi        # 6054a8 <optarg@@GLIBC_2.2.5>
  401258:	e8 b3 fb ff ff       	callq  400e10 <strtoul@plt>
  40125d:	41 89 c6             	mov    %eax,%r14d
  401260:	48 89 ea             	mov    %rbp,%rdx
  401263:	48 89 de             	mov    %rbx,%rsi
  401266:	44 89 e7             	mov    %r12d,%edi
  401269:	e8 92 fb ff ff       	callq  400e00 <getopt@plt>
  40126e:	3c ff                	cmp    $0xff,%al
  401270:	74 57                	je     4012c9 <main+0x156>
  401272:	0f be d0             	movsbl %al,%edx
  401275:	83 e8 61             	sub    $0x61,%eax
  401278:	3c 10                	cmp    $0x10,%al
  40127a:	77 31                	ja     4012ad <main+0x13a>
  40127c:	0f b6 c0             	movzbl %al,%eax
  40127f:	ff 24 c5 a0 31 40 00 	jmpq   *0x4031a0(,%rax,8)
  401286:	ba 0a 00 00 00       	mov    $0xa,%edx
  40128b:	be 00 00 00 00       	mov    $0x0,%esi
  401290:	48 8b 3d 11 42 20 00 	mov    0x204211(%rip),%rdi        # 6054a8 <optarg@@GLIBC_2.2.5>
  401297:	e8 d4 fa ff ff       	callq  400d70 <strtol@plt>
  40129c:	41 89 c5             	mov    %eax,%r13d
  40129f:	eb bf                	jmp    401260 <main+0xed>
  4012a1:	c7 05 dd 41 20 00 00 	movl   $0x0,0x2041dd(%rip)        # 605488 <notify>
  4012a8:	00 00 00 
  4012ab:	eb b3                	jmp    401260 <main+0xed>
  4012ad:	be 7f 31 40 00       	mov    $0x40317f,%esi
  4012b2:	bf 01 00 00 00       	mov    $0x1,%edi
  4012b7:	b8 00 00 00 00       	mov    $0x0,%eax
  4012bc:	e8 1f fb ff ff       	callq  400de0 <__printf_chk@plt>
  4012c1:	48 8b 3b             	mov    (%rbx),%rdi
  4012c4:	e8 9e fc ff ff       	callq  400f67 <usage>
  4012c9:	be 01 00 00 00       	mov    $0x1,%esi
  4012ce:	44 89 ef             	mov    %r13d,%edi
  4012d1:	e8 1b fd ff ff       	callq  400ff1 <initialize_target>
  4012d6:	83 3d 2b 42 20 00 00 	cmpl   $0x0,0x20422b(%rip)        # 605508 <is_checker>
  4012dd:	74 09                	je     4012e8 <main+0x175>
  4012df:	44 39 35 1a 42 20 00 	cmp    %r14d,0x20421a(%rip)        # 605500 <authkey>
  4012e6:	75 34                	jne    40131c <main+0x1a9>
  4012e8:	8b 15 16 42 20 00    	mov    0x204216(%rip),%edx        # 605504 <cookie>
  4012ee:	be 92 31 40 00       	mov    $0x403192,%esi
  4012f3:	bf 01 00 00 00       	mov    $0x1,%edi
  4012f8:	b8 00 00 00 00       	mov    $0x0,%eax
  4012fd:	e8 de fa ff ff       	callq  400de0 <__printf_chk@plt>
  401302:	48 8b 3d 77 41 20 00 	mov    0x204177(%rip),%rdi        # 605480 <buf_offset>
  401309:	e8 fc 0c 00 00       	callq  40200a <launch>
  40130e:	b8 00 00 00 00       	mov    $0x0,%eax
  401313:	5b                   	pop    %rbx
  401314:	5d                   	pop    %rbp
  401315:	41 5c                	pop    %r12
  401317:	41 5d                	pop    %r13
  401319:	41 5e                	pop    %r14
  40131b:	c3                   	retq   
  40131c:	44 89 f2             	mov    %r14d,%edx
  40131f:	be b8 30 40 00       	mov    $0x4030b8,%esi
  401324:	bf 01 00 00 00       	mov    $0x1,%edi
  401329:	b8 00 00 00 00       	mov    $0x0,%eax
  40132e:	e8 ad fa ff ff       	callq  400de0 <__printf_chk@plt>
  401333:	b8 00 00 00 00       	mov    $0x0,%eax
  401338:	e8 19 08 00 00       	callq  401b56 <check_fail>
  40133d:	eb a9                	jmp    4012e8 <main+0x175>

000000000040133f <scramble>:
  40133f:	48 83 ec 38          	sub    $0x38,%rsp
  401343:	64 48 8b 04 25 28 00 	mov    %fs:0x28,%rax
  40134a:	00 00 
  40134c:	48 89 44 24 28       	mov    %rax,0x28(%rsp)
  401351:	31 c0                	xor    %eax,%eax
  401353:	eb 10                	jmp    401365 <scramble+0x26>
  401355:	69 d0 6a 07 00 00    	imul   $0x76a,%eax,%edx
  40135b:	01 fa                	add    %edi,%edx
  40135d:	89 c1                	mov    %eax,%ecx
  40135f:	89 14 8c             	mov    %edx,(%rsp,%rcx,4)
  401362:	83 c0 01             	add    $0x1,%eax
  401365:	83 f8 09             	cmp    $0x9,%eax
  401368:	76 eb                	jbe    401355 <scramble+0x16>
  40136a:	8b 44 24 0c          	mov    0xc(%rsp),%eax
  40136e:	69 c0 d8 7b 00 00    	imul   $0x7bd8,%eax,%eax
  401374:	89 44 24 0c          	mov    %eax,0xc(%rsp)
  401378:	8b 44 24 04          	mov    0x4(%rsp),%eax
  40137c:	69 c0 9d 3f 00 00    	imul   $0x3f9d,%eax,%eax
  401382:	89 44 24 04          	mov    %eax,0x4(%rsp)
  401386:	8b 44 24 0c          	mov    0xc(%rsp),%eax
  40138a:	69 c0 e8 31 00 00    	imul   $0x31e8,%eax,%eax
  401390:	89 44 24 0c          	mov    %eax,0xc(%rsp)
  401394:	8b 44 24 24          	mov    0x24(%rsp),%eax
  401398:	69 c0 a5 55 00 00    	imul   $0x55a5,%eax,%eax
  40139e:	89 44 24 24          	mov    %eax,0x24(%rsp)
  4013a2:	8b 44 24 10          	mov    0x10(%rsp),%eax
  4013a6:	69 c0 51 63 00 00    	imul   $0x6351,%eax,%eax
  4013ac:	89 44 24 10          	mov    %eax,0x10(%rsp)
  4013b0:	8b 44 24 04          	mov    0x4(%rsp),%eax
  4013b4:	69 c0 37 9c 00 00    	imul   $0x9c37,%eax,%eax
  4013ba:	89 44 24 04          	mov    %eax,0x4(%rsp)
  4013be:	8b 44 24 08          	mov    0x8(%rsp),%eax
  4013c2:	69 c0 95 33 00 00    	imul   $0x3395,%eax,%eax
  4013c8:	89 44 24 08          	mov    %eax,0x8(%rsp)
  4013cc:	8b 44 24 0c          	mov    0xc(%rsp),%eax
  4013d0:	69 c0 b3 7b 00 00    	imul   $0x7bb3,%eax,%eax
  4013d6:	89 44 24 0c          	mov    %eax,0xc(%rsp)
  4013da:	8b 44 24 04          	mov    0x4(%rsp),%eax
  4013de:	69 c0 d6 c0 00 00    	imul   $0xc0d6,%eax,%eax
  4013e4:	89 44 24 04          	mov    %eax,0x4(%rsp)
  4013e8:	8b 44 24 10          	mov    0x10(%rsp),%eax
  4013ec:	69 c0 55 5f 00 00    	imul   $0x5f55,%eax,%eax
  4013f2:	89 44 24 10          	mov    %eax,0x10(%rsp)
  4013f6:	8b 44 24 20          	mov    0x20(%rsp),%eax
  4013fa:	69 c0 50 57 00 00    	imul   $0x5750,%eax,%eax
  401400:	89 44 24 20          	mov    %eax,0x20(%rsp)
  401404:	8b 44 24 20          	mov    0x20(%rsp),%eax
  401408:	69 c0 bb da 00 00    	imul   $0xdabb,%eax,%eax
  40140e:	89 44 24 20          	mov    %eax,0x20(%rsp)
  401412:	8b 44 24 04          	mov    0x4(%rsp),%eax
  401416:	69 c0 93 28 00 00    	imul   $0x2893,%eax,%eax
  40141c:	89 44 24 04          	mov    %eax,0x4(%rsp)
  401420:	8b 44 24 04          	mov    0x4(%rsp),%eax
  401424:	69 c0 df 5a 00 00    	imul   $0x5adf,%eax,%eax
  40142a:	89 44 24 04          	mov    %eax,0x4(%rsp)
  40142e:	8b 44 24 14          	mov    0x14(%rsp),%eax
  401432:	69 c0 ac 02 00 00    	imul   $0x2ac,%eax,%eax
  401438:	89 44 24 14          	mov    %eax,0x14(%rsp)
  40143c:	8b 44 24 10          	mov    0x10(%rsp),%eax
  401440:	69 c0 df 88 00 00    	imul   $0x88df,%eax,%eax
  401446:	89 44 24 10          	mov    %eax,0x10(%rsp)
  40144a:	8b 44 24 18          	mov    0x18(%rsp),%eax
  40144e:	69 c0 8a 0d 00 00    	imul   $0xd8a,%eax,%eax
  401454:	89 44 24 18          	mov    %eax,0x18(%rsp)
  401458:	8b 44 24 08          	mov    0x8(%rsp),%eax
  40145c:	69 c0 33 6a 00 00    	imul   $0x6a33,%eax,%eax
  401462:	89 44 24 08          	mov    %eax,0x8(%rsp)
  401466:	8b 04 24             	mov    (%rsp),%eax
  401469:	69 c0 3a 3a 00 00    	imul   $0x3a3a,%eax,%eax
  40146f:	89 04 24             	mov    %eax,(%rsp)
  401472:	8b 44 24 04          	mov    0x4(%rsp),%eax
  401476:	69 c0 60 70 00 00    	imul   $0x7060,%eax,%eax
  40147c:	89 44 24 04          	mov    %eax,0x4(%rsp)
  401480:	8b 44 24 0c          	mov    0xc(%rsp),%eax
  401484:	69 c0 82 60 00 00    	imul   $0x6082,%eax,%eax
  40148a:	89 44 24 0c          	mov    %eax,0xc(%rsp)
  40148e:	8b 44 24 20          	mov    0x20(%rsp),%eax
  401492:	69 c0 08 b7 00 00    	imul   $0xb708,%eax,%eax
  401498:	89 44 24 20          	mov    %eax,0x20(%rsp)
  40149c:	8b 44 24 0c          	mov    0xc(%rsp),%eax
  4014a0:	69 c0 bb 4f 00 00    	imul   $0x4fbb,%eax,%eax
  4014a6:	89 44 24 0c          	mov    %eax,0xc(%rsp)
  4014aa:	8b 44 24 14          	mov    0x14(%rsp),%eax
  4014ae:	69 c0 d5 21 00 00    	imul   $0x21d5,%eax,%eax
  4014b4:	89 44 24 14          	mov    %eax,0x14(%rsp)
  4014b8:	8b 04 24             	mov    (%rsp),%eax
  4014bb:	69 c0 59 f2 00 00    	imul   $0xf259,%eax,%eax
  4014c1:	89 04 24             	mov    %eax,(%rsp)
  4014c4:	8b 44 24 04          	mov    0x4(%rsp),%eax
  4014c8:	69 c0 6f ef 00 00    	imul   $0xef6f,%eax,%eax
  4014ce:	89 44 24 04          	mov    %eax,0x4(%rsp)
  4014d2:	8b 44 24 1c          	mov    0x1c(%rsp),%eax
  4014d6:	69 c0 3a 9d 00 00    	imul   $0x9d3a,%eax,%eax
  4014dc:	89 44 24 1c          	mov    %eax,0x1c(%rsp)
  4014e0:	8b 44 24 0c          	mov    0xc(%rsp),%eax
  4014e4:	69 c0 db 17 00 00    	imul   $0x17db,%eax,%eax
  4014ea:	89 44 24 0c          	mov    %eax,0xc(%rsp)
  4014ee:	8b 44 24 18          	mov    0x18(%rsp),%eax
  4014f2:	69 c0 a6 18 00 00    	imul   $0x18a6,%eax,%eax
  4014f8:	89 44 24 18          	mov    %eax,0x18(%rsp)
  4014fc:	8b 04 24             	mov    (%rsp),%eax
  4014ff:	69 c0 42 47 00 00    	imul   $0x4742,%eax,%eax
  401505:	89 04 24             	mov    %eax,(%rsp)
  401508:	8b 44 24 18          	mov    0x18(%rsp),%eax
  40150c:	69 c0 a3 c6 00 00    	imul   $0xc6a3,%eax,%eax
  401512:	89 44 24 18          	mov    %eax,0x18(%rsp)
  401516:	8b 44 24 0c          	mov    0xc(%rsp),%eax
  40151a:	69 c0 d6 99 00 00    	imul   $0x99d6,%eax,%eax
  401520:	89 44 24 0c          	mov    %eax,0xc(%rsp)
  401524:	8b 44 24 04          	mov    0x4(%rsp),%eax
  401528:	69 c0 9e 98 00 00    	imul   $0x989e,%eax,%eax
  40152e:	89 44 24 04          	mov    %eax,0x4(%rsp)
  401532:	8b 44 24 18          	mov    0x18(%rsp),%eax
  401536:	69 c0 a0 13 00 00    	imul   $0x13a0,%eax,%eax
  40153c:	89 44 24 18          	mov    %eax,0x18(%rsp)
  401540:	8b 04 24             	mov    (%rsp),%eax
  401543:	69 c0 e2 c3 00 00    	imul   $0xc3e2,%eax,%eax
  401549:	89 04 24             	mov    %eax,(%rsp)
  40154c:	8b 44 24 20          	mov    0x20(%rsp),%eax
  401550:	69 c0 63 70 00 00    	imul   $0x7063,%eax,%eax
  401556:	89 44 24 20          	mov    %eax,0x20(%rsp)
  40155a:	8b 44 24 08          	mov    0x8(%rsp),%eax
  40155e:	69 c0 97 90 00 00    	imul   $0x9097,%eax,%eax
  401564:	89 44 24 08          	mov    %eax,0x8(%rsp)
  401568:	8b 44 24 04          	mov    0x4(%rsp),%eax
  40156c:	69 c0 7c b8 00 00    	imul   $0xb87c,%eax,%eax
  401572:	89 44 24 04          	mov    %eax,0x4(%rsp)
  401576:	8b 44 24 10          	mov    0x10(%rsp),%eax
  40157a:	69 c0 27 5a 00 00    	imul   $0x5a27,%eax,%eax
  401580:	89 44 24 10          	mov    %eax,0x10(%rsp)
  401584:	8b 44 24 10          	mov    0x10(%rsp),%eax
  401588:	69 c0 e4 f0 00 00    	imul   $0xf0e4,%eax,%eax
  40158e:	89 44 24 10          	mov    %eax,0x10(%rsp)
  401592:	8b 04 24             	mov    (%rsp),%eax
  401595:	69 c0 7c 5b 00 00    	imul   $0x5b7c,%eax,%eax
  40159b:	89 04 24             	mov    %eax,(%rsp)
  40159e:	8b 44 24 14          	mov    0x14(%rsp),%eax
  4015a2:	69 c0 29 96 00 00    	imul   $0x9629,%eax,%eax
  4015a8:	89 44 24 14          	mov    %eax,0x14(%rsp)
  4015ac:	8b 44 24 18          	mov    0x18(%rsp),%eax
  4015b0:	69 c0 7f aa 00 00    	imul   $0xaa7f,%eax,%eax
  4015b6:	89 44 24 18          	mov    %eax,0x18(%rsp)
  4015ba:	8b 44 24 1c          	mov    0x1c(%rsp),%eax
  4015be:	69 c0 84 be 00 00    	imul   $0xbe84,%eax,%eax
  4015c4:	89 44 24 1c          	mov    %eax,0x1c(%rsp)
  4015c8:	8b 44 24 1c          	mov    0x1c(%rsp),%eax
  4015cc:	69 c0 be 20 00 00    	imul   $0x20be,%eax,%eax
  4015d2:	89 44 24 1c          	mov    %eax,0x1c(%rsp)
  4015d6:	8b 44 24 1c          	mov    0x1c(%rsp),%eax
  4015da:	69 c0 77 de 00 00    	imul   $0xde77,%eax,%eax
  4015e0:	89 44 24 1c          	mov    %eax,0x1c(%rsp)
  4015e4:	8b 44 24 04          	mov    0x4(%rsp),%eax
  4015e8:	69 c0 e9 d5 00 00    	imul   $0xd5e9,%eax,%eax
  4015ee:	89 44 24 04          	mov    %eax,0x4(%rsp)
  4015f2:	8b 44 24 14          	mov    0x14(%rsp),%eax
  4015f6:	69 c0 8f bb 00 00    	imul   $0xbb8f,%eax,%eax
  4015fc:	89 44 24 14          	mov    %eax,0x14(%rsp)
  401600:	8b 44 24 24          	mov    0x24(%rsp),%eax
  401604:	69 c0 56 7c 00 00    	imul   $0x7c56,%eax,%eax
  40160a:	89 44 24 24          	mov    %eax,0x24(%rsp)
  40160e:	8b 44 24 18          	mov    0x18(%rsp),%eax
  401612:	69 c0 60 41 00 00    	imul   $0x4160,%eax,%eax
  401618:	89 44 24 18          	mov    %eax,0x18(%rsp)
  40161c:	8b 44 24 04          	mov    0x4(%rsp),%eax
  401620:	69 c0 2f 53 00 00    	imul   $0x532f,%eax,%eax
  401626:	89 44 24 04          	mov    %eax,0x4(%rsp)
  40162a:	8b 44 24 10          	mov    0x10(%rsp),%eax
  40162e:	69 c0 9d 64 00 00    	imul   $0x649d,%eax,%eax
  401634:	89 44 24 10          	mov    %eax,0x10(%rsp)
  401638:	8b 44 24 14          	mov    0x14(%rsp),%eax
  40163c:	69 c0 2f d9 00 00    	imul   $0xd92f,%eax,%eax
  401642:	89 44 24 14          	mov    %eax,0x14(%rsp)
  401646:	8b 44 24 0c          	mov    0xc(%rsp),%eax
  40164a:	69 c0 19 c4 00 00    	imul   $0xc419,%eax,%eax
  401650:	89 44 24 0c          	mov    %eax,0xc(%rsp)
  401654:	8b 44 24 10          	mov    0x10(%rsp),%eax
  401658:	69 c0 6b f7 00 00    	imul   $0xf76b,%eax,%eax
  40165e:	89 44 24 10          	mov    %eax,0x10(%rsp)
  401662:	8b 44 24 18          	mov    0x18(%rsp),%eax
  401666:	69 c0 d7 7f 00 00    	imul   $0x7fd7,%eax,%eax
  40166c:	89 44 24 18          	mov    %eax,0x18(%rsp)
  401670:	8b 44 24 14          	mov    0x14(%rsp),%eax
  401674:	69 c0 52 95 00 00    	imul   $0x9552,%eax,%eax
  40167a:	89 44 24 14          	mov    %eax,0x14(%rsp)
  40167e:	8b 44 24 0c          	mov    0xc(%rsp),%eax
  401682:	69 c0 9f 4b 00 00    	imul   $0x4b9f,%eax,%eax
  401688:	89 44 24 0c          	mov    %eax,0xc(%rsp)
  40168c:	8b 44 24 04          	mov    0x4(%rsp),%eax
  401690:	69 c0 05 c4 00 00    	imul   $0xc405,%eax,%eax
  401696:	89 44 24 04          	mov    %eax,0x4(%rsp)
  40169a:	8b 04 24             	mov    (%rsp),%eax
  40169d:	69 c0 f6 02 00 00    	imul   $0x2f6,%eax,%eax
  4016a3:	89 04 24             	mov    %eax,(%rsp)
  4016a6:	8b 44 24 24          	mov    0x24(%rsp),%eax
  4016aa:	69 c0 ea 0f 00 00    	imul   $0xfea,%eax,%eax
  4016b0:	89 44 24 24          	mov    %eax,0x24(%rsp)
  4016b4:	8b 44 24 04          	mov    0x4(%rsp),%eax
  4016b8:	69 c0 25 cc 00 00    	imul   $0xcc25,%eax,%eax
  4016be:	89 44 24 04          	mov    %eax,0x4(%rsp)
  4016c2:	8b 04 24             	mov    (%rsp),%eax
  4016c5:	69 c0 ba 59 00 00    	imul   $0x59ba,%eax,%eax
  4016cb:	89 04 24             	mov    %eax,(%rsp)
  4016ce:	8b 44 24 18          	mov    0x18(%rsp),%eax
  4016d2:	69 c0 5b 54 00 00    	imul   $0x545b,%eax,%eax
  4016d8:	89 44 24 18          	mov    %eax,0x18(%rsp)
  4016dc:	8b 44 24 0c          	mov    0xc(%rsp),%eax
  4016e0:	69 c0 e3 56 00 00    	imul   $0x56e3,%eax,%eax
  4016e6:	89 44 24 0c          	mov    %eax,0xc(%rsp)
  4016ea:	8b 04 24             	mov    (%rsp),%eax
  4016ed:	69 c0 49 16 00 00    	imul   $0x1649,%eax,%eax
  4016f3:	89 04 24             	mov    %eax,(%rsp)
  4016f6:	8b 44 24 08          	mov    0x8(%rsp),%eax
  4016fa:	69 c0 7e 47 00 00    	imul   $0x477e,%eax,%eax
  401700:	89 44 24 08          	mov    %eax,0x8(%rsp)
  401704:	8b 44 24 08          	mov    0x8(%rsp),%eax
  401708:	69 c0 d9 8d 00 00    	imul   $0x8dd9,%eax,%eax
  40170e:	89 44 24 08          	mov    %eax,0x8(%rsp)
  401712:	8b 44 24 08          	mov    0x8(%rsp),%eax
  401716:	69 c0 ff 97 00 00    	imul   $0x97ff,%eax,%eax
  40171c:	89 44 24 08          	mov    %eax,0x8(%rsp)
  401720:	8b 44 24 04          	mov    0x4(%rsp),%eax
  401724:	69 c0 05 54 00 00    	imul   $0x5405,%eax,%eax
  40172a:	89 44 24 04          	mov    %eax,0x4(%rsp)
  40172e:	8b 44 24 10          	mov    0x10(%rsp),%eax
  401732:	69 c0 f0 06 00 00    	imul   $0x6f0,%eax,%eax
  401738:	89 44 24 10          	mov    %eax,0x10(%rsp)
  40173c:	8b 44 24 10          	mov    0x10(%rsp),%eax
  401740:	69 c0 53 e2 00 00    	imul   $0xe253,%eax,%eax
  401746:	89 44 24 10          	mov    %eax,0x10(%rsp)
  40174a:	8b 04 24             	mov    (%rsp),%eax
  40174d:	69 c0 dd e9 00 00    	imul   $0xe9dd,%eax,%eax
  401753:	89 04 24             	mov    %eax,(%rsp)
  401756:	8b 44 24 1c          	mov    0x1c(%rsp),%eax
  40175a:	69 c0 13 dc 00 00    	imul   $0xdc13,%eax,%eax
  401760:	89 44 24 1c          	mov    %eax,0x1c(%rsp)
  401764:	8b 44 24 04          	mov    0x4(%rsp),%eax
  401768:	69 c0 15 38 00 00    	imul   $0x3815,%eax,%eax
  40176e:	89 44 24 04          	mov    %eax,0x4(%rsp)
  401772:	8b 04 24             	mov    (%rsp),%eax
  401775:	69 c0 a7 92 00 00    	imul   $0x92a7,%eax,%eax
  40177b:	89 04 24             	mov    %eax,(%rsp)
  40177e:	8b 44 24 18          	mov    0x18(%rsp),%eax
  401782:	69 c0 76 c0 00 00    	imul   $0xc076,%eax,%eax
  401788:	89 44 24 18          	mov    %eax,0x18(%rsp)
  40178c:	8b 44 24 18          	mov    0x18(%rsp),%eax
  401790:	69 c0 d3 2d 00 00    	imul   $0x2dd3,%eax,%eax
  401796:	89 44 24 18          	mov    %eax,0x18(%rsp)
  40179a:	8b 44 24 10          	mov    0x10(%rsp),%eax
  40179e:	69 c0 81 e6 00 00    	imul   $0xe681,%eax,%eax
  4017a4:	89 44 24 10          	mov    %eax,0x10(%rsp)
  4017a8:	ba 00 00 00 00       	mov    $0x0,%edx
  4017ad:	b8 00 00 00 00       	mov    $0x0,%eax
  4017b2:	eb 0a                	jmp    4017be <scramble+0x47f>
  4017b4:	89 d1                	mov    %edx,%ecx
  4017b6:	8b 0c 8c             	mov    (%rsp,%rcx,4),%ecx
  4017b9:	01 c8                	add    %ecx,%eax
  4017bb:	83 c2 01             	add    $0x1,%edx
  4017be:	83 fa 09             	cmp    $0x9,%edx
  4017c1:	76 f1                	jbe    4017b4 <scramble+0x475>
  4017c3:	48 8b 74 24 28       	mov    0x28(%rsp),%rsi
  4017c8:	64 48 33 34 25 28 00 	xor    %fs:0x28,%rsi
  4017cf:	00 00 
  4017d1:	75 05                	jne    4017d8 <scramble+0x499>
  4017d3:	48 83 c4 38          	add    $0x38,%rsp
  4017d7:	c3                   	retq   
  4017d8:	e8 03 f5 ff ff       	callq  400ce0 <__stack_chk_fail@plt>

00000000004017dd <getbuf>:
  4017dd:	48 83 ec 28          	sub    $0x28,%rsp
  4017e1:	48 89 e7             	mov    %rsp,%rdi
  4017e4:	e8 a2 03 00 00       	callq  401b8b <Gets>
  4017e9:	b8 01 00 00 00       	mov    $0x1,%eax
  4017ee:	48 83 c4 28          	add    $0x28,%rsp
  4017f2:	c3                   	retq   

00000000004017f3 <touch1>:
  4017f3:	48 83 ec 08          	sub    $0x8,%rsp
  4017f7:	c7 05 fb 3c 20 00 01 	movl   $0x1,0x203cfb(%rip)        # 6054fc <vlevel>
  4017fe:	00 00 00 
  401801:	bf 7a 32 40 00       	mov    $0x40327a,%edi
  401806:	e8 b5 f4 ff ff       	callq  400cc0 <puts@plt>
  40180b:	bf 01 00 00 00       	mov    $0x1,%edi
  401810:	e8 cb 05 00 00       	callq  401de0 <validate>
  401815:	bf 00 00 00 00       	mov    $0x0,%edi
  40181a:	e8 11 f6 ff ff       	callq  400e30 <exit@plt>

000000000040181f <touch2>:
  40181f:	48 83 ec 08          	sub    $0x8,%rsp
  401823:	89 fa                	mov    %edi,%edx
  401825:	c7 05 cd 3c 20 00 02 	movl   $0x2,0x203ccd(%rip)        # 6054fc <vlevel>
  40182c:	00 00 00 
  40182f:	39 3d cf 3c 20 00    	cmp    %edi,0x203ccf(%rip)        # 605504 <cookie>
  401835:	74 28                	je     40185f <touch2+0x40>
  401837:	be c8 32 40 00       	mov    $0x4032c8,%esi
  40183c:	bf 01 00 00 00       	mov    $0x1,%edi
  401841:	b8 00 00 00 00       	mov    $0x0,%eax
  401846:	e8 95 f5 ff ff       	callq  400de0 <__printf_chk@plt>
  40184b:	bf 02 00 00 00       	mov    $0x2,%edi
  401850:	e8 50 06 00 00       	callq  401ea5 <fail>
  401855:	bf 00 00 00 00       	mov    $0x0,%edi
  40185a:	e8 d1 f5 ff ff       	callq  400e30 <exit@plt>
  40185f:	be a0 32 40 00       	mov    $0x4032a0,%esi
  401864:	bf 01 00 00 00       	mov    $0x1,%edi
  401869:	b8 00 00 00 00       	mov    $0x0,%eax
  40186e:	e8 6d f5 ff ff       	callq  400de0 <__printf_chk@plt>
  401873:	bf 02 00 00 00       	mov    $0x2,%edi
  401878:	e8 63 05 00 00       	callq  401de0 <validate>
  40187d:	eb d6                	jmp    401855 <touch2+0x36>

000000000040187f <hexmatch>:
  40187f:	41 54                	push   %r12
  401881:	55                   	push   %rbp
  401882:	53                   	push   %rbx
  401883:	48 83 c4 80          	add    $0xffffffffffffff80,%rsp
  401887:	89 fd                	mov    %edi,%ebp
  401889:	48 89 f3             	mov    %rsi,%rbx
  40188c:	64 48 8b 04 25 28 00 	mov    %fs:0x28,%rax
  401893:	00 00 
  401895:	48 89 44 24 78       	mov    %rax,0x78(%rsp)
  40189a:	31 c0                	xor    %eax,%eax
  40189c:	e8 ff f4 ff ff       	callq  400da0 <random@plt>
  4018a1:	48 89 c1             	mov    %rax,%rcx
  4018a4:	48 ba 0b d7 a3 70 3d 	movabs $0xa3d70a3d70a3d70b,%rdx
  4018ab:	0a d7 a3 
  4018ae:	48 f7 ea             	imul   %rdx
  4018b1:	48 01 ca             	add    %rcx,%rdx
  4018b4:	48 c1 fa 06          	sar    $0x6,%rdx
  4018b8:	48 89 c8             	mov    %rcx,%rax
  4018bb:	48 c1 f8 3f          	sar    $0x3f,%rax
  4018bf:	48 29 c2             	sub    %rax,%rdx
  4018c2:	48 8d 04 92          	lea    (%rdx,%rdx,4),%rax
  4018c6:	48 8d 14 80          	lea    (%rax,%rax,4),%rdx
  4018ca:	48 8d 04 95 00 00 00 	lea    0x0(,%rdx,4),%rax
  4018d1:	00 
  4018d2:	48 29 c1             	sub    %rax,%rcx
  4018d5:	4c 8d 24 0c          	lea    (%rsp,%rcx,1),%r12
  4018d9:	41 89 e8             	mov    %ebp,%r8d
  4018dc:	b9 97 32 40 00       	mov    $0x403297,%ecx
  4018e1:	48 c7 c2 ff ff ff ff 	mov    $0xffffffffffffffff,%rdx
  4018e8:	be 01 00 00 00       	mov    $0x1,%esi
  4018ed:	4c 89 e7             	mov    %r12,%rdi
  4018f0:	b8 00 00 00 00       	mov    $0x0,%eax
  4018f5:	e8 66 f5 ff ff       	callq  400e60 <__sprintf_chk@plt>
  4018fa:	ba 09 00 00 00       	mov    $0x9,%edx
  4018ff:	4c 89 e6             	mov    %r12,%rsi
  401902:	48 89 df             	mov    %rbx,%rdi
  401905:	e8 96 f3 ff ff       	callq  400ca0 <strncmp@plt>
  40190a:	85 c0                	test   %eax,%eax
  40190c:	0f 94 c0             	sete   %al
  40190f:	48 8b 5c 24 78       	mov    0x78(%rsp),%rbx
  401914:	64 48 33 1c 25 28 00 	xor    %fs:0x28,%rbx
  40191b:	00 00 
  40191d:	75 0c                	jne    40192b <hexmatch+0xac>
  40191f:	0f b6 c0             	movzbl %al,%eax
  401922:	48 83 ec 80          	sub    $0xffffffffffffff80,%rsp
  401926:	5b                   	pop    %rbx
  401927:	5d                   	pop    %rbp
  401928:	41 5c                	pop    %r12
  40192a:	c3                   	retq   
  40192b:	e8 b0 f3 ff ff       	callq  400ce0 <__stack_chk_fail@plt>

0000000000401930 <touch3>:
  401930:	53                   	push   %rbx
  401931:	48 89 fb             	mov    %rdi,%rbx
  401934:	c7 05 be 3b 20 00 03 	movl   $0x3,0x203bbe(%rip)        # 6054fc <vlevel>
  40193b:	00 00 00 
  40193e:	48 89 fe             	mov    %rdi,%rsi
  401941:	8b 3d bd 3b 20 00    	mov    0x203bbd(%rip),%edi        # 605504 <cookie>
  401947:	e8 33 ff ff ff       	callq  40187f <hexmatch>
  40194c:	85 c0                	test   %eax,%eax
  40194e:	74 2b                	je     40197b <touch3+0x4b>
  401950:	48 89 da             	mov    %rbx,%rdx
  401953:	be f0 32 40 00       	mov    $0x4032f0,%esi
  401958:	bf 01 00 00 00       	mov    $0x1,%edi
  40195d:	b8 00 00 00 00       	mov    $0x0,%eax
  401962:	e8 79 f4 ff ff       	callq  400de0 <__printf_chk@plt>
  401967:	bf 03 00 00 00       	mov    $0x3,%edi
  40196c:	e8 6f 04 00 00       	callq  401de0 <validate>
  401971:	bf 00 00 00 00       	mov    $0x0,%edi
  401976:	e8 b5 f4 ff ff       	callq  400e30 <exit@plt>
  40197b:	48 89 da             	mov    %rbx,%rdx
  40197e:	be 18 33 40 00       	mov    $0x403318,%esi
  401983:	bf 01 00 00 00       	mov    $0x1,%edi
  401988:	b8 00 00 00 00       	mov    $0x0,%eax
  40198d:	e8 4e f4 ff ff       	callq  400de0 <__printf_chk@plt>
  401992:	bf 03 00 00 00       	mov    $0x3,%edi
  401997:	e8 09 05 00 00       	callq  401ea5 <fail>
  40199c:	eb d3                	jmp    401971 <touch3+0x41>

000000000040199e <test>:
  40199e:	48 83 ec 08          	sub    $0x8,%rsp
  4019a2:	b8 00 00 00 00       	mov    $0x0,%eax
  4019a7:	e8 31 fe ff ff       	callq  4017dd <getbuf>
  4019ac:	89 c2                	mov    %eax,%edx
  4019ae:	be 40 33 40 00       	mov    $0x403340,%esi
  4019b3:	bf 01 00 00 00       	mov    $0x1,%edi
  4019b8:	b8 00 00 00 00       	mov    $0x0,%eax
  4019bd:	e8 1e f4 ff ff       	callq  400de0 <__printf_chk@plt>
  4019c2:	48 83 c4 08          	add    $0x8,%rsp
  4019c6:	c3                   	retq   

00000000004019c7 <start_farm>:
  4019c7:	b8 01 00 00 00       	mov    $0x1,%eax
  4019cc:	c3                   	retq   

00000000004019cd <getval_412>:
  4019cd:	b8 f8 12 18 90       	mov    $0x901812f8,%eax
  4019d2:	c3                   	retq   

00000000004019d3 <addval_453>:
  4019d3:	8d 87 58 90 90 c3    	lea    -0x3c6f6fa8(%rdi),%eax
  4019d9:	c3                   	retq   

00000000004019da <addval_440>:
  4019da:	8d 87 93 58 91 90    	lea    -0x6f6ea76d(%rdi),%eax
  4019e0:	c3                   	retq   

00000000004019e1 <getval_298>:
  4019e1:	b8 48 89 c7 c1       	mov    $0xc1c78948,%eax
  4019e6:	c3                   	retq   

00000000004019e7 <setval_365>:
  4019e7:	c7 07 48 89 c7 c3    	movl   $0xc3c78948,(%rdi)
  4019ed:	c3                   	retq   

00000000004019ee <getval_254>:
  4019ee:	b8 25 48 89 c7       	mov    $0xc7894825,%eax
  4019f3:	c3                   	retq   

00000000004019f4 <getval_344>:
  4019f4:	b8 48 89 c7 92       	mov    $0x92c78948,%eax
  4019f9:	c3                   	retq   

00000000004019fa <addval_346>:
  4019fa:	8d 87 58 90 90 90    	lea    -0x6f6f6fa8(%rdi),%eax
  401a00:	c3                   	retq   

0000000000401a01 <mid_farm>:
  401a01:	b8 01 00 00 00       	mov    $0x1,%eax
  401a06:	c3                   	retq   

0000000000401a07 <add_xy>:
  401a07:	48 8d 04 37          	lea    (%rdi,%rsi,1),%rax
  401a0b:	c3                   	retq   

0000000000401a0c <addval_135>:
  401a0c:	8d 87 48 89 e0 94    	lea    -0x6b1f76b8(%rdi),%eax
  401a12:	c3                   	retq   

0000000000401a13 <getval_321>:
  401a13:	b8 89 ca 90 c3       	mov    $0xc390ca89,%eax
  401a18:	c3                   	retq   

0000000000401a19 <getval_250>:
  401a19:	b8 89 d6 c4 db       	mov    $0xdbc4d689,%eax
  401a1e:	c3                   	retq   

0000000000401a1f <setval_102>:
  401a1f:	c7 07 89 c1 18 c9    	movl   $0xc918c189,(%rdi)
  401a25:	c3                   	retq   

0000000000401a26 <setval_122>:
  401a26:	c7 07 89 ca 60 c9    	movl   $0xc960ca89,(%rdi)
  401a2c:	c3                   	retq   

0000000000401a2d <setval_230>:
  401a2d:	c7 07 88 c1 20 db    	movl   $0xdb20c188,(%rdi)
  401a33:	c3                   	retq   

0000000000401a34 <getval_415>:
  401a34:	b8 ea 0c 8b c1       	mov    $0xc18b0cea,%eax
  401a39:	c3                   	retq   

0000000000401a3a <addval_189>:
  401a3a:	8d 87 ce 81 c1 90    	lea    -0x6f3e7e32(%rdi),%eax
  401a40:	c3                   	retq   

0000000000401a41 <addval_474>:
  401a41:	8d 87 48 89 e0 c3    	lea    -0x3c1f76b8(%rdi),%eax
  401a47:	c3                   	retq   

0000000000401a48 <addval_269>:
  401a48:	8d 87 89 d6 20 db    	lea    -0x24df2977(%rdi),%eax
  401a4e:	c3                   	retq   

0000000000401a4f <setval_209>:
  401a4f:	c7 07 89 d6 60 c9    	movl   $0xc960d689,(%rdi)
  401a55:	c3                   	retq   

0000000000401a56 <addval_482>:
  401a56:	8d 87 c2 89 c1 90    	lea    -0x6f3e763e(%rdi),%eax
  401a5c:	c3                   	retq   

0000000000401a5d <addval_377>:
  401a5d:	8d 87 89 c1 90 c3    	lea    -0x3c6f3e77(%rdi),%eax
  401a63:	c3                   	retq   

0000000000401a64 <setval_191>:
  401a64:	c7 07 e2 ee 89 d6    	movl   $0xd689eee2,(%rdi)
  401a6a:	c3                   	retq   

0000000000401a6b <setval_277>:
  401a6b:	c7 07 88 c1 84 c9    	movl   $0xc984c188,(%rdi)
  401a71:	c3                   	retq   

0000000000401a72 <setval_317>:
  401a72:	c7 07 ca 40 99 ca    	movl   $0xca9940ca,(%rdi)
  401a78:	c3                   	retq   

0000000000401a79 <addval_112>:
  401a79:	8d 87 48 89 e0 c3    	lea    -0x3c1f76b8(%rdi),%eax
  401a7f:	c3                   	retq   

0000000000401a80 <addval_134>:
  401a80:	8d 87 d0 40 89 e0    	lea    -0x1f76bf30(%rdi),%eax
  401a86:	c3                   	retq   

0000000000401a87 <setval_106>:
  401a87:	c7 07 97 89 d6 c1    	movl   $0xc1d68997,(%rdi)
  401a8d:	c3                   	retq   

0000000000401a8e <addval_145>:
  401a8e:	8d 87 48 89 e0 92    	lea    -0x6d1f76b8(%rdi),%eax
  401a94:	c3                   	retq   

0000000000401a95 <addval_150>:
  401a95:	8d 87 09 c1 20 db    	lea    -0x24df3ef7(%rdi),%eax
  401a9b:	c3                   	retq   

0000000000401a9c <getval_220>:
  401a9c:	b8 89 ca 94 90       	mov    $0x9094ca89,%eax
  401aa1:	c3                   	retq   

0000000000401aa2 <addval_246>:
  401aa2:	8d 87 89 ca 94 c9    	lea    -0x366b3577(%rdi),%eax
  401aa8:	c3                   	retq   

0000000000401aa9 <addval_110>:
  401aa9:	8d 87 89 ca c4 d2    	lea    -0x2d3b3577(%rdi),%eax
  401aaf:	c3                   	retq   

0000000000401ab0 <setval_445>:
  401ab0:	c7 07 48 89 e0 91    	movl   $0x91e08948,(%rdi)
  401ab6:	c3                   	retq   

0000000000401ab7 <addval_480>:
  401ab7:	8d 87 8d d6 84 db    	lea    -0x247b2973(%rdi),%eax
  401abd:	c3                   	retq   

0000000000401abe <addval_337>:
  401abe:	8d 87 89 d6 92 c3    	lea    -0x3c6d2977(%rdi),%eax
  401ac4:	c3                   	retq   

0000000000401ac5 <addval_170>:
  401ac5:	8d 87 89 d6 00 c9    	lea    -0x36ff2977(%rdi),%eax
  401acb:	c3                   	retq   

0000000000401acc <getval_192>:
  401acc:	b8 89 ca 20 db       	mov    $0xdb20ca89,%eax
  401ad1:	c3                   	retq   

0000000000401ad2 <getval_195>:
  401ad2:	b8 67 48 81 e0       	mov    $0xe0814867,%eax
  401ad7:	c3                   	retq   

0000000000401ad8 <addval_447>:
  401ad8:	8d 87 48 89 e0 94    	lea    -0x6b1f76b8(%rdi),%eax
  401ade:	c3                   	retq   

0000000000401adf <getval_487>:
  401adf:	b8 99 ca 84 db       	mov    $0xdb84ca99,%eax
  401ae4:	c3                   	retq   

0000000000401ae5 <end_farm>:
  401ae5:	b8 01 00 00 00       	mov    $0x1,%eax
  401aea:	c3                   	retq   

0000000000401aeb <save_char>:
  401aeb:	8b 05 33 46 20 00    	mov    0x204633(%rip),%eax        # 606124 <gets_cnt>
  401af1:	3d ff 03 00 00       	cmp    $0x3ff,%eax
  401af6:	7f 49                	jg     401b41 <save_char+0x56>
  401af8:	89 f9                	mov    %edi,%ecx
  401afa:	c0 e9 04             	shr    $0x4,%cl
  401afd:	8d 14 40             	lea    (%rax,%rax,2),%edx
  401b00:	83 e1 0f             	and    $0xf,%ecx
  401b03:	0f b6 b1 60 36 40 00 	movzbl 0x403660(%rcx),%esi
  401b0a:	48 63 ca             	movslq %edx,%rcx
  401b0d:	40 88 b1 20 55 60 00 	mov    %sil,0x605520(%rcx)
  401b14:	8d 4a 01             	lea    0x1(%rdx),%ecx
  401b17:	83 e7 0f             	and    $0xf,%edi
  401b1a:	0f b6 b7 60 36 40 00 	movzbl 0x403660(%rdi),%esi
  401b21:	48 63 c9             	movslq %ecx,%rcx
  401b24:	40 88 b1 20 55 60 00 	mov    %sil,0x605520(%rcx)
  401b2b:	83 c2 02             	add    $0x2,%edx
  401b2e:	48 63 d2             	movslq %edx,%rdx
  401b31:	c6 82 20 55 60 00 20 	movb   $0x20,0x605520(%rdx)
  401b38:	83 c0 01             	add    $0x1,%eax
  401b3b:	89 05 e3 45 20 00    	mov    %eax,0x2045e3(%rip)        # 606124 <gets_cnt>
  401b41:	f3 c3                	repz retq 

0000000000401b43 <save_term>:
  401b43:	8b 05 db 45 20 00    	mov    0x2045db(%rip),%eax        # 606124 <gets_cnt>
  401b49:	8d 04 40             	lea    (%rax,%rax,2),%eax
  401b4c:	48 98                	cltq   
  401b4e:	c6 80 20 55 60 00 00 	movb   $0x0,0x605520(%rax)
  401b55:	c3                   	retq   

0000000000401b56 <check_fail>:
  401b56:	48 83 ec 08          	sub    $0x8,%rsp
  401b5a:	0f be 15 c7 45 20 00 	movsbl 0x2045c7(%rip),%edx        # 606128 <target_prefix>
  401b61:	41 b8 20 55 60 00    	mov    $0x605520,%r8d
  401b67:	8b 0d 8b 39 20 00    	mov    0x20398b(%rip),%ecx        # 6054f8 <check_level>
  401b6d:	be 63 33 40 00       	mov    $0x403363,%esi
  401b72:	bf 01 00 00 00       	mov    $0x1,%edi
  401b77:	b8 00 00 00 00       	mov    $0x0,%eax
  401b7c:	e8 5f f2 ff ff       	callq  400de0 <__printf_chk@plt>
  401b81:	bf 01 00 00 00       	mov    $0x1,%edi
  401b86:	e8 a5 f2 ff ff       	callq  400e30 <exit@plt>

0000000000401b8b <Gets>:
  401b8b:	41 54                	push   %r12
  401b8d:	55                   	push   %rbp
  401b8e:	53                   	push   %rbx
  401b8f:	49 89 fc             	mov    %rdi,%r12
  401b92:	c7 05 88 45 20 00 00 	movl   $0x0,0x204588(%rip)        # 606124 <gets_cnt>
  401b99:	00 00 00 
  401b9c:	48 89 fb             	mov    %rdi,%rbx
  401b9f:	eb 11                	jmp    401bb2 <Gets+0x27>
  401ba1:	48 8d 6b 01          	lea    0x1(%rbx),%rbp
  401ba5:	88 03                	mov    %al,(%rbx)
  401ba7:	0f b6 f8             	movzbl %al,%edi
  401baa:	e8 3c ff ff ff       	callq  401aeb <save_char>
  401baf:	48 89 eb             	mov    %rbp,%rbx
  401bb2:	48 8b 3d 37 39 20 00 	mov    0x203937(%rip),%rdi        # 6054f0 <infile>
  401bb9:	e8 f2 f1 ff ff       	callq  400db0 <_IO_getc@plt>
  401bbe:	83 f8 ff             	cmp    $0xffffffff,%eax
  401bc1:	74 05                	je     401bc8 <Gets+0x3d>
  401bc3:	83 f8 0a             	cmp    $0xa,%eax
  401bc6:	75 d9                	jne    401ba1 <Gets+0x16>
  401bc8:	c6 03 00             	movb   $0x0,(%rbx)
  401bcb:	b8 00 00 00 00       	mov    $0x0,%eax
  401bd0:	e8 6e ff ff ff       	callq  401b43 <save_term>
  401bd5:	4c 89 e0             	mov    %r12,%rax
  401bd8:	5b                   	pop    %rbx
  401bd9:	5d                   	pop    %rbp
  401bda:	41 5c                	pop    %r12
  401bdc:	c3                   	retq   

0000000000401bdd <notify_server>:
  401bdd:	55                   	push   %rbp
  401bde:	53                   	push   %rbx
  401bdf:	48 81 ec 18 40 00 00 	sub    $0x4018,%rsp
  401be6:	64 48 8b 04 25 28 00 	mov    %fs:0x28,%rax
  401bed:	00 00 
  401bef:	48 89 84 24 08 40 00 	mov    %rax,0x4008(%rsp)
  401bf6:	00 
  401bf7:	31 c0                	xor    %eax,%eax
  401bf9:	83 3d 08 39 20 00 00 	cmpl   $0x0,0x203908(%rip)        # 605508 <is_checker>
  401c00:	0f 85 c9 00 00 00    	jne    401ccf <notify_server+0xf2>
  401c06:	89 fb                	mov    %edi,%ebx
  401c08:	8b 05 16 45 20 00    	mov    0x204516(%rip),%eax        # 606124 <gets_cnt>
  401c0e:	83 c0 64             	add    $0x64,%eax
  401c11:	3d 00 20 00 00       	cmp    $0x2000,%eax
  401c16:	0f 8f d4 00 00 00    	jg     401cf0 <notify_server+0x113>
  401c1c:	0f be 05 05 45 20 00 	movsbl 0x204505(%rip),%eax        # 606128 <target_prefix>
  401c23:	83 3d 5e 38 20 00 00 	cmpl   $0x0,0x20385e(%rip)        # 605488 <notify>
  401c2a:	0f 84 de 00 00 00    	je     401d0e <notify_server+0x131>
  401c30:	8b 15 ca 38 20 00    	mov    0x2038ca(%rip),%edx        # 605500 <authkey>
  401c36:	85 db                	test   %ebx,%ebx
  401c38:	0f 84 da 00 00 00    	je     401d18 <notify_server+0x13b>
  401c3e:	bd 79 33 40 00       	mov    $0x403379,%ebp
  401c43:	68 20 55 60 00       	pushq  $0x605520
  401c48:	56                   	push   %rsi
  401c49:	50                   	push   %rax
  401c4a:	52                   	push   %rdx
  401c4b:	49 89 e9             	mov    %rbp,%r9
  401c4e:	44 8b 05 f3 34 20 00 	mov    0x2034f3(%rip),%r8d        # 605148 <target_id>
  401c55:	b9 83 33 40 00       	mov    $0x403383,%ecx
  401c5a:	ba 00 20 00 00       	mov    $0x2000,%edx
  401c5f:	be 01 00 00 00       	mov    $0x1,%esi
  401c64:	48 8d 7c 24 20       	lea    0x20(%rsp),%rdi
  401c69:	b8 00 00 00 00       	mov    $0x0,%eax
  401c6e:	e8 ed f1 ff ff       	callq  400e60 <__sprintf_chk@plt>
  401c73:	48 83 c4 20          	add    $0x20,%rsp
  401c77:	83 3d 0a 38 20 00 00 	cmpl   $0x0,0x20380a(%rip)        # 605488 <notify>
  401c7e:	0f 84 d3 00 00 00    	je     401d57 <notify_server+0x17a>
  401c84:	85 db                	test   %ebx,%ebx
  401c86:	0f 84 bc 00 00 00    	je     401d48 <notify_server+0x16b>
  401c8c:	4c 8d 8c 24 00 20 00 	lea    0x2000(%rsp),%r9
  401c93:	00 
  401c94:	41 b8 00 00 00 00    	mov    $0x0,%r8d
  401c9a:	48 89 e1             	mov    %rsp,%rcx
  401c9d:	48 8b 15 ac 34 20 00 	mov    0x2034ac(%rip),%rdx        # 605150 <lab>
  401ca4:	48 8b 35 ad 34 20 00 	mov    0x2034ad(%rip),%rsi        # 605158 <course>
  401cab:	48 8b 3d 8e 34 20 00 	mov    0x20348e(%rip),%rdi        # 605140 <user_id>
  401cb2:	e8 31 11 00 00       	callq  402de8 <driver_post>
  401cb7:	85 c0                	test   %eax,%eax
  401cb9:	78 67                	js     401d22 <notify_server+0x145>
  401cbb:	bf c8 34 40 00       	mov    $0x4034c8,%edi
  401cc0:	e8 fb ef ff ff       	callq  400cc0 <puts@plt>
  401cc5:	bf ab 33 40 00       	mov    $0x4033ab,%edi
  401cca:	e8 f1 ef ff ff       	callq  400cc0 <puts@plt>
  401ccf:	48 8b 84 24 08 40 00 	mov    0x4008(%rsp),%rax
  401cd6:	00 
  401cd7:	64 48 33 04 25 28 00 	xor    %fs:0x28,%rax
  401cde:	00 00 
  401ce0:	0f 85 f5 00 00 00    	jne    401ddb <notify_server+0x1fe>
  401ce6:	48 81 c4 18 40 00 00 	add    $0x4018,%rsp
  401ced:	5b                   	pop    %rbx
  401cee:	5d                   	pop    %rbp
  401cef:	c3                   	retq   
  401cf0:	be 98 34 40 00       	mov    $0x403498,%esi
  401cf5:	bf 01 00 00 00       	mov    $0x1,%edi
  401cfa:	b8 00 00 00 00       	mov    $0x0,%eax
  401cff:	e8 dc f0 ff ff       	callq  400de0 <__printf_chk@plt>
  401d04:	bf 01 00 00 00       	mov    $0x1,%edi
  401d09:	e8 22 f1 ff ff       	callq  400e30 <exit@plt>
  401d0e:	ba ff ff ff ff       	mov    $0xffffffff,%edx
  401d13:	e9 1e ff ff ff       	jmpq   401c36 <notify_server+0x59>
  401d18:	bd 7e 33 40 00       	mov    $0x40337e,%ebp
  401d1d:	e9 21 ff ff ff       	jmpq   401c43 <notify_server+0x66>
  401d22:	48 8d 94 24 00 20 00 	lea    0x2000(%rsp),%rdx
  401d29:	00 
  401d2a:	be 9f 33 40 00       	mov    $0x40339f,%esi
  401d2f:	bf 01 00 00 00       	mov    $0x1,%edi
  401d34:	b8 00 00 00 00       	mov    $0x0,%eax
  401d39:	e8 a2 f0 ff ff       	callq  400de0 <__printf_chk@plt>
  401d3e:	bf 01 00 00 00       	mov    $0x1,%edi
  401d43:	e8 e8 f0 ff ff       	callq  400e30 <exit@plt>
  401d48:	bf b5 33 40 00       	mov    $0x4033b5,%edi
  401d4d:	e8 6e ef ff ff       	callq  400cc0 <puts@plt>
  401d52:	e9 78 ff ff ff       	jmpq   401ccf <notify_server+0xf2>
  401d57:	48 89 ea             	mov    %rbp,%rdx
  401d5a:	be 00 35 40 00       	mov    $0x403500,%esi
  401d5f:	bf 01 00 00 00       	mov    $0x1,%edi
  401d64:	b8 00 00 00 00       	mov    $0x0,%eax
  401d69:	e8 72 f0 ff ff       	callq  400de0 <__printf_chk@plt>
  401d6e:	48 8b 15 cb 33 20 00 	mov    0x2033cb(%rip),%rdx        # 605140 <user_id>
  401d75:	be bc 33 40 00       	mov    $0x4033bc,%esi
  401d7a:	bf 01 00 00 00       	mov    $0x1,%edi
  401d7f:	b8 00 00 00 00       	mov    $0x0,%eax
  401d84:	e8 57 f0 ff ff       	callq  400de0 <__printf_chk@plt>
  401d89:	48 8b 15 c8 33 20 00 	mov    0x2033c8(%rip),%rdx        # 605158 <course>
  401d90:	be c9 33 40 00       	mov    $0x4033c9,%esi
  401d95:	bf 01 00 00 00       	mov    $0x1,%edi
  401d9a:	b8 00 00 00 00       	mov    $0x0,%eax
  401d9f:	e8 3c f0 ff ff       	callq  400de0 <__printf_chk@plt>
  401da4:	48 8b 15 a5 33 20 00 	mov    0x2033a5(%rip),%rdx        # 605150 <lab>
  401dab:	be d5 33 40 00       	mov    $0x4033d5,%esi
  401db0:	bf 01 00 00 00       	mov    $0x1,%edi
  401db5:	b8 00 00 00 00       	mov    $0x0,%eax
  401dba:	e8 21 f0 ff ff       	callq  400de0 <__printf_chk@plt>
  401dbf:	48 89 e2             	mov    %rsp,%rdx
  401dc2:	be de 33 40 00       	mov    $0x4033de,%esi
  401dc7:	bf 01 00 00 00       	mov    $0x1,%edi
  401dcc:	b8 00 00 00 00       	mov    $0x0,%eax
  401dd1:	e8 0a f0 ff ff       	callq  400de0 <__printf_chk@plt>
  401dd6:	e9 f4 fe ff ff       	jmpq   401ccf <notify_server+0xf2>
  401ddb:	e8 00 ef ff ff       	callq  400ce0 <__stack_chk_fail@plt>

0000000000401de0 <validate>:
  401de0:	53                   	push   %rbx
  401de1:	89 fb                	mov    %edi,%ebx
  401de3:	83 3d 1e 37 20 00 00 	cmpl   $0x0,0x20371e(%rip)        # 605508 <is_checker>
  401dea:	74 6b                	je     401e57 <validate+0x77>
  401dec:	39 3d 0a 37 20 00    	cmp    %edi,0x20370a(%rip)        # 6054fc <vlevel>
  401df2:	75 2f                	jne    401e23 <validate+0x43>
  401df4:	8b 15 fe 36 20 00    	mov    0x2036fe(%rip),%edx        # 6054f8 <check_level>
  401dfa:	39 fa                	cmp    %edi,%edx
  401dfc:	75 39                	jne    401e37 <validate+0x57>
  401dfe:	0f be 15 23 43 20 00 	movsbl 0x204323(%rip),%edx        # 606128 <target_prefix>
  401e05:	41 b8 20 55 60 00    	mov    $0x605520,%r8d
  401e0b:	89 f9                	mov    %edi,%ecx
  401e0d:	be 08 34 40 00       	mov    $0x403408,%esi
  401e12:	bf 01 00 00 00       	mov    $0x1,%edi
  401e17:	b8 00 00 00 00       	mov    $0x0,%eax
  401e1c:	e8 bf ef ff ff       	callq  400de0 <__printf_chk@plt>
  401e21:	5b                   	pop    %rbx
  401e22:	c3                   	retq   
  401e23:	bf ea 33 40 00       	mov    $0x4033ea,%edi
  401e28:	e8 93 ee ff ff       	callq  400cc0 <puts@plt>
  401e2d:	b8 00 00 00 00       	mov    $0x0,%eax
  401e32:	e8 1f fd ff ff       	callq  401b56 <check_fail>
  401e37:	89 f9                	mov    %edi,%ecx
  401e39:	be 28 35 40 00       	mov    $0x403528,%esi
  401e3e:	bf 01 00 00 00       	mov    $0x1,%edi
  401e43:	b8 00 00 00 00       	mov    $0x0,%eax
  401e48:	e8 93 ef ff ff       	callq  400de0 <__printf_chk@plt>
  401e4d:	b8 00 00 00 00       	mov    $0x0,%eax
  401e52:	e8 ff fc ff ff       	callq  401b56 <check_fail>
  401e57:	39 3d 9f 36 20 00    	cmp    %edi,0x20369f(%rip)        # 6054fc <vlevel>
  401e5d:	74 18                	je     401e77 <validate+0x97>
  401e5f:	bf ea 33 40 00       	mov    $0x4033ea,%edi
  401e64:	e8 57 ee ff ff       	callq  400cc0 <puts@plt>
  401e69:	89 de                	mov    %ebx,%esi
  401e6b:	bf 00 00 00 00       	mov    $0x0,%edi
  401e70:	e8 68 fd ff ff       	callq  401bdd <notify_server>
  401e75:	eb aa                	jmp    401e21 <validate+0x41>
  401e77:	0f be 0d aa 42 20 00 	movsbl 0x2042aa(%rip),%ecx        # 606128 <target_prefix>
  401e7e:	89 fa                	mov    %edi,%edx
  401e80:	be 50 35 40 00       	mov    $0x403550,%esi
  401e85:	bf 01 00 00 00       	mov    $0x1,%edi
  401e8a:	b8 00 00 00 00       	mov    $0x0,%eax
  401e8f:	e8 4c ef ff ff       	callq  400de0 <__printf_chk@plt>
  401e94:	89 de                	mov    %ebx,%esi
  401e96:	bf 01 00 00 00       	mov    $0x1,%edi
  401e9b:	e8 3d fd ff ff       	callq  401bdd <notify_server>
  401ea0:	e9 7c ff ff ff       	jmpq   401e21 <validate+0x41>

0000000000401ea5 <fail>:
  401ea5:	48 83 ec 08          	sub    $0x8,%rsp
  401ea9:	83 3d 58 36 20 00 00 	cmpl   $0x0,0x203658(%rip)        # 605508 <is_checker>
  401eb0:	75 11                	jne    401ec3 <fail+0x1e>
  401eb2:	89 fe                	mov    %edi,%esi
  401eb4:	bf 00 00 00 00       	mov    $0x0,%edi
  401eb9:	e8 1f fd ff ff       	callq  401bdd <notify_server>
  401ebe:	48 83 c4 08          	add    $0x8,%rsp
  401ec2:	c3                   	retq   
  401ec3:	b8 00 00 00 00       	mov    $0x0,%eax
  401ec8:	e8 89 fc ff ff       	callq  401b56 <check_fail>

0000000000401ecd <bushandler>:
  401ecd:	48 83 ec 08          	sub    $0x8,%rsp
  401ed1:	83 3d 30 36 20 00 00 	cmpl   $0x0,0x203630(%rip)        # 605508 <is_checker>
  401ed8:	74 14                	je     401eee <bushandler+0x21>
  401eda:	bf 1d 34 40 00       	mov    $0x40341d,%edi
  401edf:	e8 dc ed ff ff       	callq  400cc0 <puts@plt>
  401ee4:	b8 00 00 00 00       	mov    $0x0,%eax
  401ee9:	e8 68 fc ff ff       	callq  401b56 <check_fail>
  401eee:	bf 88 35 40 00       	mov    $0x403588,%edi
  401ef3:	e8 c8 ed ff ff       	callq  400cc0 <puts@plt>
  401ef8:	bf 27 34 40 00       	mov    $0x403427,%edi
  401efd:	e8 be ed ff ff       	callq  400cc0 <puts@plt>
  401f02:	be 00 00 00 00       	mov    $0x0,%esi
  401f07:	bf 00 00 00 00       	mov    $0x0,%edi
  401f0c:	e8 cc fc ff ff       	callq  401bdd <notify_server>
  401f11:	bf 01 00 00 00       	mov    $0x1,%edi
  401f16:	e8 15 ef ff ff       	callq  400e30 <exit@plt>

0000000000401f1b <seghandler>:
  401f1b:	48 83 ec 08          	sub    $0x8,%rsp
  401f1f:	83 3d e2 35 20 00 00 	cmpl   $0x0,0x2035e2(%rip)        # 605508 <is_checker>
  401f26:	74 14                	je     401f3c <seghandler+0x21>
  401f28:	bf 3d 34 40 00       	mov    $0x40343d,%edi
  401f2d:	e8 8e ed ff ff       	callq  400cc0 <puts@plt>
  401f32:	b8 00 00 00 00       	mov    $0x0,%eax
  401f37:	e8 1a fc ff ff       	callq  401b56 <check_fail>
  401f3c:	bf a8 35 40 00       	mov    $0x4035a8,%edi
  401f41:	e8 7a ed ff ff       	callq  400cc0 <puts@plt>
  401f46:	bf 27 34 40 00       	mov    $0x403427,%edi
  401f4b:	e8 70 ed ff ff       	callq  400cc0 <puts@plt>
  401f50:	be 00 00 00 00       	mov    $0x0,%esi
  401f55:	bf 00 00 00 00       	mov    $0x0,%edi
  401f5a:	e8 7e fc ff ff       	callq  401bdd <notify_server>
  401f5f:	bf 01 00 00 00       	mov    $0x1,%edi
  401f64:	e8 c7 ee ff ff       	callq  400e30 <exit@plt>

0000000000401f69 <illegalhandler>:
  401f69:	48 83 ec 08          	sub    $0x8,%rsp
  401f6d:	83 3d 94 35 20 00 00 	cmpl   $0x0,0x203594(%rip)        # 605508 <is_checker>
  401f74:	74 14                	je     401f8a <illegalhandler+0x21>
  401f76:	bf 50 34 40 00       	mov    $0x403450,%edi
  401f7b:	e8 40 ed ff ff       	callq  400cc0 <puts@plt>
  401f80:	b8 00 00 00 00       	mov    $0x0,%eax
  401f85:	e8 cc fb ff ff       	callq  401b56 <check_fail>
  401f8a:	bf d0 35 40 00       	mov    $0x4035d0,%edi
  401f8f:	e8 2c ed ff ff       	callq  400cc0 <puts@plt>
  401f94:	bf 27 34 40 00       	mov    $0x403427,%edi
  401f99:	e8 22 ed ff ff       	callq  400cc0 <puts@plt>
  401f9e:	be 00 00 00 00       	mov    $0x0,%esi
  401fa3:	bf 00 00 00 00       	mov    $0x0,%edi
  401fa8:	e8 30 fc ff ff       	callq  401bdd <notify_server>
  401fad:	bf 01 00 00 00       	mov    $0x1,%edi
  401fb2:	e8 79 ee ff ff       	callq  400e30 <exit@plt>

0000000000401fb7 <sigalrmhandler>:
  401fb7:	48 83 ec 08          	sub    $0x8,%rsp
  401fbb:	83 3d 46 35 20 00 00 	cmpl   $0x0,0x203546(%rip)        # 605508 <is_checker>
  401fc2:	74 14                	je     401fd8 <sigalrmhandler+0x21>
  401fc4:	bf 64 34 40 00       	mov    $0x403464,%edi
  401fc9:	e8 f2 ec ff ff       	callq  400cc0 <puts@plt>
  401fce:	b8 00 00 00 00       	mov    $0x0,%eax
  401fd3:	e8 7e fb ff ff       	callq  401b56 <check_fail>
  401fd8:	ba 05 00 00 00       	mov    $0x5,%edx
  401fdd:	be 00 36 40 00       	mov    $0x403600,%esi
  401fe2:	bf 01 00 00 00       	mov    $0x1,%edi
  401fe7:	b8 00 00 00 00       	mov    $0x0,%eax
  401fec:	e8 ef ed ff ff       	callq  400de0 <__printf_chk@plt>
  401ff1:	be 00 00 00 00       	mov    $0x0,%esi
  401ff6:	bf 00 00 00 00       	mov    $0x0,%edi
  401ffb:	e8 dd fb ff ff       	callq  401bdd <notify_server>
  402000:	bf 01 00 00 00       	mov    $0x1,%edi
  402005:	e8 26 ee ff ff       	callq  400e30 <exit@plt>

000000000040200a <launch>:
  40200a:	55                   	push   %rbp
  40200b:	48 89 e5             	mov    %rsp,%rbp
  40200e:	48 83 ec 10          	sub    $0x10,%rsp
  402012:	48 89 fa             	mov    %rdi,%rdx
  402015:	64 48 8b 04 25 28 00 	mov    %fs:0x28,%rax
  40201c:	00 00 
  40201e:	48 89 45 f8          	mov    %rax,-0x8(%rbp)
  402022:	31 c0                	xor    %eax,%eax
  402024:	48 8d 47 1e          	lea    0x1e(%rdi),%rax
  402028:	48 83 e0 f0          	and    $0xfffffffffffffff0,%rax
  40202c:	48 29 c4             	sub    %rax,%rsp
  40202f:	48 8d 7c 24 0f       	lea    0xf(%rsp),%rdi
  402034:	48 83 e7 f0          	and    $0xfffffffffffffff0,%rdi
  402038:	be f4 00 00 00       	mov    $0xf4,%esi
  40203d:	e8 be ec ff ff       	callq  400d00 <memset@plt>
  402042:	48 8b 05 57 34 20 00 	mov    0x203457(%rip),%rax        # 6054a0 <stdin@@GLIBC_2.2.5>
  402049:	48 39 05 a0 34 20 00 	cmp    %rax,0x2034a0(%rip)        # 6054f0 <infile>
  402050:	74 38                	je     40208a <launch+0x80>
  402052:	c7 05 a0 34 20 00 00 	movl   $0x0,0x2034a0(%rip)        # 6054fc <vlevel>
  402059:	00 00 00 
  40205c:	b8 00 00 00 00       	mov    $0x0,%eax
  402061:	e8 38 f9 ff ff       	callq  40199e <test>
  402066:	83 3d 9b 34 20 00 00 	cmpl   $0x0,0x20349b(%rip)        # 605508 <is_checker>
  40206d:	75 31                	jne    4020a0 <launch+0x96>
  40206f:	bf 84 34 40 00       	mov    $0x403484,%edi
  402074:	e8 47 ec ff ff       	callq  400cc0 <puts@plt>
  402079:	48 8b 45 f8          	mov    -0x8(%rbp),%rax
  40207d:	64 48 33 04 25 28 00 	xor    %fs:0x28,%rax
  402084:	00 00 
  402086:	75 2c                	jne    4020b4 <launch+0xaa>
  402088:	c9                   	leaveq 
  402089:	c3                   	retq   
  40208a:	be 6c 34 40 00       	mov    $0x40346c,%esi
  40208f:	bf 01 00 00 00       	mov    $0x1,%edi
  402094:	b8 00 00 00 00       	mov    $0x0,%eax
  402099:	e8 42 ed ff ff       	callq  400de0 <__printf_chk@plt>
  40209e:	eb b2                	jmp    402052 <launch+0x48>
  4020a0:	bf 79 34 40 00       	mov    $0x403479,%edi
  4020a5:	e8 16 ec ff ff       	callq  400cc0 <puts@plt>
  4020aa:	b8 00 00 00 00       	mov    $0x0,%eax
  4020af:	e8 a2 fa ff ff       	callq  401b56 <check_fail>
  4020b4:	e8 27 ec ff ff       	callq  400ce0 <__stack_chk_fail@plt>

00000000004020b9 <stable_launch>:
  4020b9:	53                   	push   %rbx
  4020ba:	48 89 3d 27 34 20 00 	mov    %rdi,0x203427(%rip)        # 6054e8 <global_offset>
  4020c1:	41 b9 00 00 00 00    	mov    $0x0,%r9d
  4020c7:	41 b8 00 00 00 00    	mov    $0x0,%r8d
  4020cd:	b9 32 01 00 00       	mov    $0x132,%ecx
  4020d2:	ba 07 00 00 00       	mov    $0x7,%edx
  4020d7:	be 00 00 10 00       	mov    $0x100000,%esi
  4020dc:	bf 00 60 58 55       	mov    $0x55586000,%edi
  4020e1:	e8 0a ec ff ff       	callq  400cf0 <mmap@plt>
  4020e6:	48 89 c3             	mov    %rax,%rbx
  4020e9:	48 3d 00 60 58 55    	cmp    $0x55586000,%rax
  4020ef:	75 43                	jne    402134 <stable_launch+0x7b>
  4020f1:	48 8d 90 f8 ff 0f 00 	lea    0xffff8(%rax),%rdx
  4020f8:	48 89 15 31 40 20 00 	mov    %rdx,0x204031(%rip)        # 606130 <stack_top>
  4020ff:	48 89 e0             	mov    %rsp,%rax
  402102:	48 89 d4             	mov    %rdx,%rsp
  402105:	48 89 c2             	mov    %rax,%rdx
  402108:	48 89 15 d1 33 20 00 	mov    %rdx,0x2033d1(%rip)        # 6054e0 <global_save_stack>
  40210f:	48 8b 3d d2 33 20 00 	mov    0x2033d2(%rip),%rdi        # 6054e8 <global_offset>
  402116:	e8 ef fe ff ff       	callq  40200a <launch>
  40211b:	48 8b 05 be 33 20 00 	mov    0x2033be(%rip),%rax        # 6054e0 <global_save_stack>
  402122:	48 89 c4             	mov    %rax,%rsp
  402125:	be 00 00 10 00       	mov    $0x100000,%esi
  40212a:	48 89 df             	mov    %rbx,%rdi
  40212d:	e8 9e ec ff ff       	callq  400dd0 <munmap@plt>
  402132:	5b                   	pop    %rbx
  402133:	c3                   	retq   
  402134:	be 00 00 10 00       	mov    $0x100000,%esi
  402139:	48 89 c7             	mov    %rax,%rdi
  40213c:	e8 8f ec ff ff       	callq  400dd0 <munmap@plt>
  402141:	b9 00 60 58 55       	mov    $0x55586000,%ecx
  402146:	ba 38 36 40 00       	mov    $0x403638,%edx
  40214b:	be 01 00 00 00       	mov    $0x1,%esi
  402150:	48 8b 3d 69 33 20 00 	mov    0x203369(%rip),%rdi        # 6054c0 <stderr@@GLIBC_2.2.5>
  402157:	b8 00 00 00 00       	mov    $0x0,%eax
  40215c:	e8 ef ec ff ff       	callq  400e50 <__fprintf_chk@plt>
  402161:	bf 01 00 00 00       	mov    $0x1,%edi
  402166:	e8 c5 ec ff ff       	callq  400e30 <exit@plt>

000000000040216b <rio_readinitb>:
  40216b:	89 37                	mov    %esi,(%rdi)
  40216d:	c7 47 04 00 00 00 00 	movl   $0x0,0x4(%rdi)
  402174:	48 8d 47 10          	lea    0x10(%rdi),%rax
  402178:	48 89 47 08          	mov    %rax,0x8(%rdi)
  40217c:	c3                   	retq   

000000000040217d <sigalrm_handler>:
  40217d:	48 83 ec 08          	sub    $0x8,%rsp
  402181:	b9 00 00 00 00       	mov    $0x0,%ecx
  402186:	ba 70 36 40 00       	mov    $0x403670,%edx
  40218b:	be 01 00 00 00       	mov    $0x1,%esi
  402190:	48 8b 3d 29 33 20 00 	mov    0x203329(%rip),%rdi        # 6054c0 <stderr@@GLIBC_2.2.5>
  402197:	b8 00 00 00 00       	mov    $0x0,%eax
  40219c:	e8 af ec ff ff       	callq  400e50 <__fprintf_chk@plt>
  4021a1:	bf 01 00 00 00       	mov    $0x1,%edi
  4021a6:	e8 85 ec ff ff       	callq  400e30 <exit@plt>

00000000004021ab <rio_writen>:
  4021ab:	41 55                	push   %r13
  4021ad:	41 54                	push   %r12
  4021af:	55                   	push   %rbp
  4021b0:	53                   	push   %rbx
  4021b1:	48 83 ec 08          	sub    $0x8,%rsp
  4021b5:	41 89 fc             	mov    %edi,%r12d
  4021b8:	48 89 f5             	mov    %rsi,%rbp
  4021bb:	49 89 d5             	mov    %rdx,%r13
  4021be:	48 89 d3             	mov    %rdx,%rbx
  4021c1:	eb 06                	jmp    4021c9 <rio_writen+0x1e>
  4021c3:	48 29 c3             	sub    %rax,%rbx
  4021c6:	48 01 c5             	add    %rax,%rbp
  4021c9:	48 85 db             	test   %rbx,%rbx
  4021cc:	74 24                	je     4021f2 <rio_writen+0x47>
  4021ce:	48 89 da             	mov    %rbx,%rdx
  4021d1:	48 89 ee             	mov    %rbp,%rsi
  4021d4:	44 89 e7             	mov    %r12d,%edi
  4021d7:	e8 f4 ea ff ff       	callq  400cd0 <write@plt>
  4021dc:	48 85 c0             	test   %rax,%rax
  4021df:	7f e2                	jg     4021c3 <rio_writen+0x18>
  4021e1:	e8 9a ea ff ff       	callq  400c80 <__errno_location@plt>
  4021e6:	83 38 04             	cmpl   $0x4,(%rax)
  4021e9:	75 15                	jne    402200 <rio_writen+0x55>
  4021eb:	b8 00 00 00 00       	mov    $0x0,%eax
  4021f0:	eb d1                	jmp    4021c3 <rio_writen+0x18>
  4021f2:	4c 89 e8             	mov    %r13,%rax
  4021f5:	48 83 c4 08          	add    $0x8,%rsp
  4021f9:	5b                   	pop    %rbx
  4021fa:	5d                   	pop    %rbp
  4021fb:	41 5c                	pop    %r12
  4021fd:	41 5d                	pop    %r13
  4021ff:	c3                   	retq   
  402200:	48 c7 c0 ff ff ff ff 	mov    $0xffffffffffffffff,%rax
  402207:	eb ec                	jmp    4021f5 <rio_writen+0x4a>

0000000000402209 <rio_read>:
  402209:	41 55                	push   %r13
  40220b:	41 54                	push   %r12
  40220d:	55                   	push   %rbp
  40220e:	53                   	push   %rbx
  40220f:	48 83 ec 08          	sub    $0x8,%rsp
  402213:	48 89 fb             	mov    %rdi,%rbx
  402216:	49 89 f5             	mov    %rsi,%r13
  402219:	49 89 d4             	mov    %rdx,%r12
  40221c:	eb 0a                	jmp    402228 <rio_read+0x1f>
  40221e:	e8 5d ea ff ff       	callq  400c80 <__errno_location@plt>
  402223:	83 38 04             	cmpl   $0x4,(%rax)
  402226:	75 5c                	jne    402284 <rio_read+0x7b>
  402228:	8b 6b 04             	mov    0x4(%rbx),%ebp
  40222b:	85 ed                	test   %ebp,%ebp
  40222d:	7f 24                	jg     402253 <rio_read+0x4a>
  40222f:	48 8d 6b 10          	lea    0x10(%rbx),%rbp
  402233:	8b 3b                	mov    (%rbx),%edi
  402235:	ba 00 20 00 00       	mov    $0x2000,%edx
  40223a:	48 89 ee             	mov    %rbp,%rsi
  40223d:	e8 ee ea ff ff       	callq  400d30 <read@plt>
  402242:	89 43 04             	mov    %eax,0x4(%rbx)
  402245:	85 c0                	test   %eax,%eax
  402247:	78 d5                	js     40221e <rio_read+0x15>
  402249:	85 c0                	test   %eax,%eax
  40224b:	74 40                	je     40228d <rio_read+0x84>
  40224d:	48 89 6b 08          	mov    %rbp,0x8(%rbx)
  402251:	eb d5                	jmp    402228 <rio_read+0x1f>
  402253:	89 e8                	mov    %ebp,%eax
  402255:	4c 39 e0             	cmp    %r12,%rax
  402258:	72 03                	jb     40225d <rio_read+0x54>
  40225a:	44 89 e5             	mov    %r12d,%ebp
  40225d:	4c 63 e5             	movslq %ebp,%r12
  402260:	48 8b 73 08          	mov    0x8(%rbx),%rsi
  402264:	4c 89 e2             	mov    %r12,%rdx
  402267:	4c 89 ef             	mov    %r13,%rdi
  40226a:	e8 11 eb ff ff       	callq  400d80 <memcpy@plt>
  40226f:	4c 01 63 08          	add    %r12,0x8(%rbx)
  402273:	29 6b 04             	sub    %ebp,0x4(%rbx)
  402276:	4c 89 e0             	mov    %r12,%rax
  402279:	48 83 c4 08          	add    $0x8,%rsp
  40227d:	5b                   	pop    %rbx
  40227e:	5d                   	pop    %rbp
  40227f:	41 5c                	pop    %r12
  402281:	41 5d                	pop    %r13
  402283:	c3                   	retq   
  402284:	48 c7 c0 ff ff ff ff 	mov    $0xffffffffffffffff,%rax
  40228b:	eb ec                	jmp    402279 <rio_read+0x70>
  40228d:	b8 00 00 00 00       	mov    $0x0,%eax
  402292:	eb e5                	jmp    402279 <rio_read+0x70>

0000000000402294 <rio_readlineb>:
  402294:	41 55                	push   %r13
  402296:	41 54                	push   %r12
  402298:	55                   	push   %rbp
  402299:	53                   	push   %rbx
  40229a:	48 83 ec 18          	sub    $0x18,%rsp
  40229e:	49 89 fd             	mov    %rdi,%r13
  4022a1:	48 89 f5             	mov    %rsi,%rbp
  4022a4:	49 89 d4             	mov    %rdx,%r12
  4022a7:	64 48 8b 04 25 28 00 	mov    %fs:0x28,%rax
  4022ae:	00 00 
  4022b0:	48 89 44 24 08       	mov    %rax,0x8(%rsp)
  4022b5:	31 c0                	xor    %eax,%eax
  4022b7:	bb 01 00 00 00       	mov    $0x1,%ebx
  4022bc:	4c 39 e3             	cmp    %r12,%rbx
  4022bf:	73 47                	jae    402308 <rio_readlineb+0x74>
  4022c1:	ba 01 00 00 00       	mov    $0x1,%edx
  4022c6:	48 8d 74 24 07       	lea    0x7(%rsp),%rsi
  4022cb:	4c 89 ef             	mov    %r13,%rdi
  4022ce:	e8 36 ff ff ff       	callq  402209 <rio_read>
  4022d3:	83 f8 01             	cmp    $0x1,%eax
  4022d6:	75 1c                	jne    4022f4 <rio_readlineb+0x60>
  4022d8:	48 8d 45 01          	lea    0x1(%rbp),%rax
  4022dc:	0f b6 54 24 07       	movzbl 0x7(%rsp),%edx
  4022e1:	88 55 00             	mov    %dl,0x0(%rbp)
  4022e4:	80 7c 24 07 0a       	cmpb   $0xa,0x7(%rsp)
  4022e9:	74 1a                	je     402305 <rio_readlineb+0x71>
  4022eb:	48 83 c3 01          	add    $0x1,%rbx
  4022ef:	48 89 c5             	mov    %rax,%rbp
  4022f2:	eb c8                	jmp    4022bc <rio_readlineb+0x28>
  4022f4:	85 c0                	test   %eax,%eax
  4022f6:	75 32                	jne    40232a <rio_readlineb+0x96>
  4022f8:	48 83 fb 01          	cmp    $0x1,%rbx
  4022fc:	75 0a                	jne    402308 <rio_readlineb+0x74>
  4022fe:	b8 00 00 00 00       	mov    $0x0,%eax
  402303:	eb 0a                	jmp    40230f <rio_readlineb+0x7b>
  402305:	48 89 c5             	mov    %rax,%rbp
  402308:	c6 45 00 00          	movb   $0x0,0x0(%rbp)
  40230c:	48 89 d8             	mov    %rbx,%rax
  40230f:	48 8b 4c 24 08       	mov    0x8(%rsp),%rcx
  402314:	64 48 33 0c 25 28 00 	xor    %fs:0x28,%rcx
  40231b:	00 00 
  40231d:	75 14                	jne    402333 <rio_readlineb+0x9f>
  40231f:	48 83 c4 18          	add    $0x18,%rsp
  402323:	5b                   	pop    %rbx
  402324:	5d                   	pop    %rbp
  402325:	41 5c                	pop    %r12
  402327:	41 5d                	pop    %r13
  402329:	c3                   	retq   
  40232a:	48 c7 c0 ff ff ff ff 	mov    $0xffffffffffffffff,%rax
  402331:	eb dc                	jmp    40230f <rio_readlineb+0x7b>
  402333:	e8 a8 e9 ff ff       	callq  400ce0 <__stack_chk_fail@plt>

0000000000402338 <urlencode>:
  402338:	41 54                	push   %r12
  40233a:	55                   	push   %rbp
  40233b:	53                   	push   %rbx
  40233c:	48 83 ec 10          	sub    $0x10,%rsp
  402340:	48 89 fb             	mov    %rdi,%rbx
  402343:	48 89 f5             	mov    %rsi,%rbp
  402346:	64 48 8b 04 25 28 00 	mov    %fs:0x28,%rax
  40234d:	00 00 
  40234f:	48 89 44 24 08       	mov    %rax,0x8(%rsp)
  402354:	31 c0                	xor    %eax,%eax
  402356:	48 c7 c1 ff ff ff ff 	mov    $0xffffffffffffffff,%rcx
  40235d:	f2 ae                	repnz scas %es:(%rdi),%al
  40235f:	48 89 ce             	mov    %rcx,%rsi
  402362:	48 f7 d6             	not    %rsi
  402365:	8d 46 ff             	lea    -0x1(%rsi),%eax
  402368:	eb 0f                	jmp    402379 <urlencode+0x41>
  40236a:	44 88 45 00          	mov    %r8b,0x0(%rbp)
  40236e:	48 8d 6d 01          	lea    0x1(%rbp),%rbp
  402372:	48 83 c3 01          	add    $0x1,%rbx
  402376:	44 89 e0             	mov    %r12d,%eax
  402379:	44 8d 60 ff          	lea    -0x1(%rax),%r12d
  40237d:	85 c0                	test   %eax,%eax
  40237f:	0f 84 a6 00 00 00    	je     40242b <urlencode+0xf3>
  402385:	44 0f b6 03          	movzbl (%rbx),%r8d
  402389:	41 80 f8 2a          	cmp    $0x2a,%r8b
  40238d:	0f 94 c2             	sete   %dl
  402390:	41 80 f8 2d          	cmp    $0x2d,%r8b
  402394:	0f 94 c0             	sete   %al
  402397:	08 c2                	or     %al,%dl
  402399:	75 cf                	jne    40236a <urlencode+0x32>
  40239b:	41 80 f8 2e          	cmp    $0x2e,%r8b
  40239f:	74 c9                	je     40236a <urlencode+0x32>
  4023a1:	41 80 f8 5f          	cmp    $0x5f,%r8b
  4023a5:	74 c3                	je     40236a <urlencode+0x32>
  4023a7:	41 8d 40 d0          	lea    -0x30(%r8),%eax
  4023ab:	3c 09                	cmp    $0x9,%al
  4023ad:	76 bb                	jbe    40236a <urlencode+0x32>
  4023af:	41 8d 40 bf          	lea    -0x41(%r8),%eax
  4023b3:	3c 19                	cmp    $0x19,%al
  4023b5:	76 b3                	jbe    40236a <urlencode+0x32>
  4023b7:	41 8d 40 9f          	lea    -0x61(%r8),%eax
  4023bb:	3c 19                	cmp    $0x19,%al
  4023bd:	76 ab                	jbe    40236a <urlencode+0x32>
  4023bf:	41 80 f8 20          	cmp    $0x20,%r8b
  4023c3:	74 54                	je     402419 <urlencode+0xe1>
  4023c5:	41 8d 40 e0          	lea    -0x20(%r8),%eax
  4023c9:	3c 5f                	cmp    $0x5f,%al
  4023cb:	0f 96 c2             	setbe  %dl
  4023ce:	41 80 f8 09          	cmp    $0x9,%r8b
  4023d2:	0f 94 c0             	sete   %al
  4023d5:	08 c2                	or     %al,%dl
  4023d7:	74 4d                	je     402426 <urlencode+0xee>
  4023d9:	45 0f b6 c0          	movzbl %r8b,%r8d
  4023dd:	b9 08 37 40 00       	mov    $0x403708,%ecx
  4023e2:	ba 08 00 00 00       	mov    $0x8,%edx
  4023e7:	be 01 00 00 00       	mov    $0x1,%esi
  4023ec:	48 89 e7             	mov    %rsp,%rdi
  4023ef:	b8 00 00 00 00       	mov    $0x0,%eax
  4023f4:	e8 67 ea ff ff       	callq  400e60 <__sprintf_chk@plt>
  4023f9:	0f b6 04 24          	movzbl (%rsp),%eax
  4023fd:	88 45 00             	mov    %al,0x0(%rbp)
  402400:	0f b6 44 24 01       	movzbl 0x1(%rsp),%eax
  402405:	88 45 01             	mov    %al,0x1(%rbp)
  402408:	0f b6 44 24 02       	movzbl 0x2(%rsp),%eax
  40240d:	88 45 02             	mov    %al,0x2(%rbp)
  402410:	48 8d 6d 03          	lea    0x3(%rbp),%rbp
  402414:	e9 59 ff ff ff       	jmpq   402372 <urlencode+0x3a>
  402419:	c6 45 00 2b          	movb   $0x2b,0x0(%rbp)
  40241d:	48 8d 6d 01          	lea    0x1(%rbp),%rbp
  402421:	e9 4c ff ff ff       	jmpq   402372 <urlencode+0x3a>
  402426:	b8 ff ff ff ff       	mov    $0xffffffff,%eax
  40242b:	48 8b 74 24 08       	mov    0x8(%rsp),%rsi
  402430:	64 48 33 34 25 28 00 	xor    %fs:0x28,%rsi
  402437:	00 00 
  402439:	75 09                	jne    402444 <urlencode+0x10c>
  40243b:	48 83 c4 10          	add    $0x10,%rsp
  40243f:	5b                   	pop    %rbx
  402440:	5d                   	pop    %rbp
  402441:	41 5c                	pop    %r12
  402443:	c3                   	retq   
  402444:	e8 97 e8 ff ff       	callq  400ce0 <__stack_chk_fail@plt>

0000000000402449 <submitr>:
  402449:	41 57                	push   %r15
  40244b:	41 56                	push   %r14
  40244d:	41 55                	push   %r13
  40244f:	41 54                	push   %r12
  402451:	55                   	push   %rbp
  402452:	53                   	push   %rbx
  402453:	48 81 ec 58 a0 00 00 	sub    $0xa058,%rsp
  40245a:	49 89 fc             	mov    %rdi,%r12
  40245d:	89 74 24 04          	mov    %esi,0x4(%rsp)
  402461:	49 89 d7             	mov    %rdx,%r15
  402464:	49 89 ce             	mov    %rcx,%r14
  402467:	4c 89 44 24 08       	mov    %r8,0x8(%rsp)
  40246c:	4d 89 cd             	mov    %r9,%r13
  40246f:	48 8b ac 24 90 a0 00 	mov    0xa090(%rsp),%rbp
  402476:	00 
  402477:	64 48 8b 04 25 28 00 	mov    %fs:0x28,%rax
  40247e:	00 00 
  402480:	48 89 84 24 48 a0 00 	mov    %rax,0xa048(%rsp)
  402487:	00 
  402488:	31 c0                	xor    %eax,%eax
  40248a:	c7 44 24 1c 00 00 00 	movl   $0x0,0x1c(%rsp)
  402491:	00 
  402492:	ba 00 00 00 00       	mov    $0x0,%edx
  402497:	be 01 00 00 00       	mov    $0x1,%esi
  40249c:	bf 02 00 00 00       	mov    $0x2,%edi
  4024a1:	e8 ca e9 ff ff       	callq  400e70 <socket@plt>
  4024a6:	85 c0                	test   %eax,%eax
  4024a8:	0f 88 9b 02 00 00    	js     402749 <submitr+0x300>
  4024ae:	89 c3                	mov    %eax,%ebx
  4024b0:	4c 89 e7             	mov    %r12,%rdi
  4024b3:	e8 98 e8 ff ff       	callq  400d50 <gethostbyname@plt>
  4024b8:	48 85 c0             	test   %rax,%rax
  4024bb:	0f 84 d4 02 00 00    	je     402795 <submitr+0x34c>
  4024c1:	48 c7 44 24 22 00 00 	movq   $0x0,0x22(%rsp)
  4024c8:	00 00 
  4024ca:	c7 44 24 2a 00 00 00 	movl   $0x0,0x2a(%rsp)
  4024d1:	00 
  4024d2:	66 c7 44 24 2e 00 00 	movw   $0x0,0x2e(%rsp)
  4024d9:	66 c7 44 24 20 02 00 	movw   $0x2,0x20(%rsp)
  4024e0:	48 63 50 14          	movslq 0x14(%rax),%rdx
  4024e4:	48 8b 40 18          	mov    0x18(%rax),%rax
  4024e8:	48 8b 30             	mov    (%rax),%rsi
  4024eb:	48 8d 7c 24 24       	lea    0x24(%rsp),%rdi
  4024f0:	b9 0c 00 00 00       	mov    $0xc,%ecx
  4024f5:	e8 66 e8 ff ff       	callq  400d60 <__memmove_chk@plt>
  4024fa:	0f b7 44 24 04       	movzwl 0x4(%rsp),%eax
  4024ff:	66 c1 c8 08          	ror    $0x8,%ax
  402503:	66 89 44 24 22       	mov    %ax,0x22(%rsp)
  402508:	ba 10 00 00 00       	mov    $0x10,%edx
  40250d:	48 8d 74 24 20       	lea    0x20(%rsp),%rsi
  402512:	89 df                	mov    %ebx,%edi
  402514:	e8 27 e9 ff ff       	callq  400e40 <connect@plt>
  402519:	85 c0                	test   %eax,%eax
  40251b:	0f 88 dc 02 00 00    	js     4027fd <submitr+0x3b4>
  402521:	48 c7 c6 ff ff ff ff 	mov    $0xffffffffffffffff,%rsi
  402528:	b8 00 00 00 00       	mov    $0x0,%eax
  40252d:	48 89 f1             	mov    %rsi,%rcx
  402530:	4c 89 ef             	mov    %r13,%rdi
  402533:	f2 ae                	repnz scas %es:(%rdi),%al
  402535:	48 89 ca             	mov    %rcx,%rdx
  402538:	48 f7 d2             	not    %rdx
  40253b:	48 89 f1             	mov    %rsi,%rcx
  40253e:	4c 89 ff             	mov    %r15,%rdi
  402541:	f2 ae                	repnz scas %es:(%rdi),%al
  402543:	48 f7 d1             	not    %rcx
  402546:	49 89 c8             	mov    %rcx,%r8
  402549:	48 89 f1             	mov    %rsi,%rcx
  40254c:	4c 89 f7             	mov    %r14,%rdi
  40254f:	f2 ae                	repnz scas %es:(%rdi),%al
  402551:	48 f7 d1             	not    %rcx
  402554:	4d 8d 44 08 fe       	lea    -0x2(%r8,%rcx,1),%r8
  402559:	48 89 f1             	mov    %rsi,%rcx
  40255c:	48 8b 7c 24 08       	mov    0x8(%rsp),%rdi
  402561:	f2 ae                	repnz scas %es:(%rdi),%al
  402563:	48 89 c8             	mov    %rcx,%rax
  402566:	48 f7 d0             	not    %rax
  402569:	49 8d 4c 00 ff       	lea    -0x1(%r8,%rax,1),%rcx
  40256e:	48 8d 44 52 fd       	lea    -0x3(%rdx,%rdx,2),%rax
  402573:	48 8d 84 01 80 00 00 	lea    0x80(%rcx,%rax,1),%rax
  40257a:	00 
  40257b:	48 3d 00 20 00 00    	cmp    $0x2000,%rax
  402581:	0f 87 d0 02 00 00    	ja     402857 <submitr+0x40e>
  402587:	48 8d b4 24 40 40 00 	lea    0x4040(%rsp),%rsi
  40258e:	00 
  40258f:	b9 00 04 00 00       	mov    $0x400,%ecx
  402594:	b8 00 00 00 00       	mov    $0x0,%eax
  402599:	48 89 f7             	mov    %rsi,%rdi
  40259c:	f3 48 ab             	rep stos %rax,%es:(%rdi)
  40259f:	4c 89 ef             	mov    %r13,%rdi
  4025a2:	e8 91 fd ff ff       	callq  402338 <urlencode>
  4025a7:	85 c0                	test   %eax,%eax
  4025a9:	0f 88 1b 03 00 00    	js     4028ca <submitr+0x481>
  4025af:	4c 8d ac 24 40 20 00 	lea    0x2040(%rsp),%r13
  4025b6:	00 
  4025b7:	41 54                	push   %r12
  4025b9:	48 8d 84 24 48 40 00 	lea    0x4048(%rsp),%rax
  4025c0:	00 
  4025c1:	50                   	push   %rax
  4025c2:	4d 89 f9             	mov    %r15,%r9
  4025c5:	4d 89 f0             	mov    %r14,%r8
  4025c8:	b9 98 36 40 00       	mov    $0x403698,%ecx
  4025cd:	ba 00 20 00 00       	mov    $0x2000,%edx
  4025d2:	be 01 00 00 00       	mov    $0x1,%esi
  4025d7:	4c 89 ef             	mov    %r13,%rdi
  4025da:	b8 00 00 00 00       	mov    $0x0,%eax
  4025df:	e8 7c e8 ff ff       	callq  400e60 <__sprintf_chk@plt>
  4025e4:	48 c7 c1 ff ff ff ff 	mov    $0xffffffffffffffff,%rcx
  4025eb:	b8 00 00 00 00       	mov    $0x0,%eax
  4025f0:	4c 89 ef             	mov    %r13,%rdi
  4025f3:	f2 ae                	repnz scas %es:(%rdi),%al
  4025f5:	48 89 ca             	mov    %rcx,%rdx
  4025f8:	48 f7 d2             	not    %rdx
  4025fb:	48 8d 52 ff          	lea    -0x1(%rdx),%rdx
  4025ff:	4c 89 ee             	mov    %r13,%rsi
  402602:	89 df                	mov    %ebx,%edi
  402604:	e8 a2 fb ff ff       	callq  4021ab <rio_writen>
  402609:	48 83 c4 10          	add    $0x10,%rsp
  40260d:	48 85 c0             	test   %rax,%rax
  402610:	0f 88 3f 03 00 00    	js     402955 <submitr+0x50c>
  402616:	89 de                	mov    %ebx,%esi
  402618:	48 8d 7c 24 30       	lea    0x30(%rsp),%rdi
  40261d:	e8 49 fb ff ff       	callq  40216b <rio_readinitb>
  402622:	ba 00 20 00 00       	mov    $0x2000,%edx
  402627:	48 8d b4 24 40 20 00 	lea    0x2040(%rsp),%rsi
  40262e:	00 
  40262f:	48 8d 7c 24 30       	lea    0x30(%rsp),%rdi
  402634:	e8 5b fc ff ff       	callq  402294 <rio_readlineb>
  402639:	48 85 c0             	test   %rax,%rax
  40263c:	0f 8e 82 03 00 00    	jle    4029c4 <submitr+0x57b>
  402642:	4c 8d 84 24 40 80 00 	lea    0x8040(%rsp),%r8
  402649:	00 
  40264a:	48 8d 4c 24 1c       	lea    0x1c(%rsp),%rcx
  40264f:	48 8d 94 24 40 60 00 	lea    0x6040(%rsp),%rdx
  402656:	00 
  402657:	be 0f 37 40 00       	mov    $0x40370f,%esi
  40265c:	48 8d bc 24 40 20 00 	lea    0x2040(%rsp),%rdi
  402663:	00 
  402664:	b8 00 00 00 00       	mov    $0x0,%eax
  402669:	e8 52 e7 ff ff       	callq  400dc0 <__isoc99_sscanf@plt>
  40266e:	48 8d b4 24 40 20 00 	lea    0x2040(%rsp),%rsi
  402675:	00 
  402676:	bf 26 37 40 00       	mov    $0x403726,%edi
  40267b:	b9 03 00 00 00       	mov    $0x3,%ecx
  402680:	f3 a6                	repz cmpsb %es:(%rdi),%ds:(%rsi)
  402682:	0f 97 c0             	seta   %al
  402685:	1c 00                	sbb    $0x0,%al
  402687:	84 c0                	test   %al,%al
  402689:	0f 84 b3 03 00 00    	je     402a42 <submitr+0x5f9>
  40268f:	ba 00 20 00 00       	mov    $0x2000,%edx
  402694:	48 8d b4 24 40 20 00 	lea    0x2040(%rsp),%rsi
  40269b:	00 
  40269c:	48 8d 7c 24 30       	lea    0x30(%rsp),%rdi
  4026a1:	e8 ee fb ff ff       	callq  402294 <rio_readlineb>
  4026a6:	48 85 c0             	test   %rax,%rax
  4026a9:	7f c3                	jg     40266e <submitr+0x225>
  4026ab:	48 b8 45 72 72 6f 72 	movabs $0x43203a726f727245,%rax
  4026b2:	3a 20 43 
  4026b5:	48 ba 6c 69 65 6e 74 	movabs $0x6e7520746e65696c,%rdx
  4026bc:	20 75 6e 
  4026bf:	48 89 45 00          	mov    %rax,0x0(%rbp)
  4026c3:	48 89 55 08          	mov    %rdx,0x8(%rbp)
  4026c7:	48 b8 61 62 6c 65 20 	movabs $0x206f7420656c6261,%rax
  4026ce:	74 6f 20 
  4026d1:	48 ba 72 65 61 64 20 	movabs $0x6165682064616572,%rdx
  4026d8:	68 65 61 
  4026db:	48 89 45 10          	mov    %rax,0x10(%rbp)
  4026df:	48 89 55 18          	mov    %rdx,0x18(%rbp)
  4026e3:	48 b8 64 65 72 73 20 	movabs $0x6f72662073726564,%rax
  4026ea:	66 72 6f 
  4026ed:	48 ba 6d 20 74 68 65 	movabs $0x657220656874206d,%rdx
  4026f4:	20 72 65 
  4026f7:	48 89 45 20          	mov    %rax,0x20(%rbp)
  4026fb:	48 89 55 28          	mov    %rdx,0x28(%rbp)
  4026ff:	48 b8 73 75 6c 74 20 	movabs $0x72657320746c7573,%rax
  402706:	73 65 72 
  402709:	48 89 45 30          	mov    %rax,0x30(%rbp)
  40270d:	c7 45 38 76 65 72 00 	movl   $0x726576,0x38(%rbp)
  402714:	89 df                	mov    %ebx,%edi
  402716:	e8 05 e6 ff ff       	callq  400d20 <close@plt>
  40271b:	b8 ff ff ff ff       	mov    $0xffffffff,%eax
  402720:	48 8b 9c 24 48 a0 00 	mov    0xa048(%rsp),%rbx
  402727:	00 
  402728:	64 48 33 1c 25 28 00 	xor    %fs:0x28,%rbx
  40272f:	00 00 
  402731:	0f 85 76 04 00 00    	jne    402bad <submitr+0x764>
  402737:	48 81 c4 58 a0 00 00 	add    $0xa058,%rsp
  40273e:	5b                   	pop    %rbx
  40273f:	5d                   	pop    %rbp
  402740:	41 5c                	pop    %r12
  402742:	41 5d                	pop    %r13
  402744:	41 5e                	pop    %r14
  402746:	41 5f                	pop    %r15
  402748:	c3                   	retq   
  402749:	48 b8 45 72 72 6f 72 	movabs $0x43203a726f727245,%rax
  402750:	3a 20 43 
  402753:	48 ba 6c 69 65 6e 74 	movabs $0x6e7520746e65696c,%rdx
  40275a:	20 75 6e 
  40275d:	48 89 45 00          	mov    %rax,0x0(%rbp)
  402761:	48 89 55 08          	mov    %rdx,0x8(%rbp)
  402765:	48 b8 61 62 6c 65 20 	movabs $0x206f7420656c6261,%rax
  40276c:	74 6f 20 
  40276f:	48 ba 63 72 65 61 74 	movabs $0x7320657461657263,%rdx
  402776:	65 20 73 
  402779:	48 89 45 10          	mov    %rax,0x10(%rbp)
  40277d:	48 89 55 18          	mov    %rdx,0x18(%rbp)
  402781:	c7 45 20 6f 63 6b 65 	movl   $0x656b636f,0x20(%rbp)
  402788:	66 c7 45 24 74 00    	movw   $0x74,0x24(%rbp)
  40278e:	b8 ff ff ff ff       	mov    $0xffffffff,%eax
  402793:	eb 8b                	jmp    402720 <submitr+0x2d7>
  402795:	48 b8 45 72 72 6f 72 	movabs $0x44203a726f727245,%rax
  40279c:	3a 20 44 
  40279f:	48 ba 4e 53 20 69 73 	movabs $0x6e7520736920534e,%rdx
  4027a6:	20 75 6e 
  4027a9:	48 89 45 00          	mov    %rax,0x0(%rbp)
  4027ad:	48 89 55 08          	mov    %rdx,0x8(%rbp)
  4027b1:	48 b8 61 62 6c 65 20 	movabs $0x206f7420656c6261,%rax
  4027b8:	74 6f 20 
  4027bb:	48 ba 72 65 73 6f 6c 	movabs $0x2065766c6f736572,%rdx
  4027c2:	76 65 20 
  4027c5:	48 89 45 10          	mov    %rax,0x10(%rbp)
  4027c9:	48 89 55 18          	mov    %rdx,0x18(%rbp)
  4027cd:	48 b8 73 65 72 76 65 	movabs $0x6120726576726573,%rax
  4027d4:	72 20 61 
  4027d7:	48 89 45 20          	mov    %rax,0x20(%rbp)
  4027db:	c7 45 28 64 64 72 65 	movl   $0x65726464,0x28(%rbp)
  4027e2:	66 c7 45 2c 73 73    	movw   $0x7373,0x2c(%rbp)
  4027e8:	c6 45 2e 00          	movb   $0x0,0x2e(%rbp)
  4027ec:	89 df                	mov    %ebx,%edi
  4027ee:	e8 2d e5 ff ff       	callq  400d20 <close@plt>
  4027f3:	b8 ff ff ff ff       	mov    $0xffffffff,%eax
  4027f8:	e9 23 ff ff ff       	jmpq   402720 <submitr+0x2d7>
  4027fd:	48 b8 45 72 72 6f 72 	movabs $0x55203a726f727245,%rax
  402804:	3a 20 55 
  402807:	48 ba 6e 61 62 6c 65 	movabs $0x6f7420656c62616e,%rdx
  40280e:	20 74 6f 
  402811:	48 89 45 00          	mov    %rax,0x0(%rbp)
  402815:	48 89 55 08          	mov    %rdx,0x8(%rbp)
  402819:	48 b8 20 63 6f 6e 6e 	movabs $0x7463656e6e6f6320,%rax
  402820:	65 63 74 
  402823:	48 ba 20 74 6f 20 74 	movabs $0x20656874206f7420,%rdx
  40282a:	68 65 20 
  40282d:	48 89 45 10          	mov    %rax,0x10(%rbp)
  402831:	48 89 55 18          	mov    %rdx,0x18(%rbp)
  402835:	c7 45 20 73 65 72 76 	movl   $0x76726573,0x20(%rbp)
  40283c:	66 c7 45 24 65 72    	movw   $0x7265,0x24(%rbp)
  402842:	c6 45 26 00          	movb   $0x0,0x26(%rbp)
  402846:	89 df                	mov    %ebx,%edi
  402848:	e8 d3 e4 ff ff       	callq  400d20 <close@plt>
  40284d:	b8 ff ff ff ff       	mov    $0xffffffff,%eax
  402852:	e9 c9 fe ff ff       	jmpq   402720 <submitr+0x2d7>
  402857:	48 b8 45 72 72 6f 72 	movabs $0x52203a726f727245,%rax
  40285e:	3a 20 52 
  402861:	48 ba 65 73 75 6c 74 	movabs $0x747320746c757365,%rdx
  402868:	20 73 74 
  40286b:	48 89 45 00          	mov    %rax,0x0(%rbp)
  40286f:	48 89 55 08          	mov    %rdx,0x8(%rbp)
  402873:	48 b8 72 69 6e 67 20 	movabs $0x6f6f7420676e6972,%rax
  40287a:	74 6f 6f 
  40287d:	48 ba 20 6c 61 72 67 	movabs $0x202e656772616c20,%rdx
  402884:	65 2e 20 
  402887:	48 89 45 10          	mov    %rax,0x10(%rbp)
  40288b:	48 89 55 18          	mov    %rdx,0x18(%rbp)
  40288f:	48 b8 49 6e 63 72 65 	movabs $0x6573616572636e49,%rax
  402896:	61 73 65 
  402899:	48 ba 20 53 55 42 4d 	movabs $0x5254494d42555320,%rdx
  4028a0:	49 54 52 
  4028a3:	48 89 45 20          	mov    %rax,0x20(%rbp)
  4028a7:	48 89 55 28          	mov    %rdx,0x28(%rbp)
  4028ab:	48 b8 5f 4d 41 58 42 	movabs $0x46554258414d5f,%rax
  4028b2:	55 46 00 
  4028b5:	48 89 45 30          	mov    %rax,0x30(%rbp)
  4028b9:	89 df                	mov    %ebx,%edi
  4028bb:	e8 60 e4 ff ff       	callq  400d20 <close@plt>
  4028c0:	b8 ff ff ff ff       	mov    $0xffffffff,%eax
  4028c5:	e9 56 fe ff ff       	jmpq   402720 <submitr+0x2d7>
  4028ca:	48 b8 45 72 72 6f 72 	movabs $0x52203a726f727245,%rax
  4028d1:	3a 20 52 
  4028d4:	48 ba 65 73 75 6c 74 	movabs $0x747320746c757365,%rdx
  4028db:	20 73 74 
  4028de:	48 89 45 00          	mov    %rax,0x0(%rbp)
  4028e2:	48 89 55 08          	mov    %rdx,0x8(%rbp)
  4028e6:	48 b8 72 69 6e 67 20 	movabs $0x6e6f6320676e6972,%rax
  4028ed:	63 6f 6e 
  4028f0:	48 ba 74 61 69 6e 73 	movabs $0x6e6120736e696174,%rdx
  4028f7:	20 61 6e 
  4028fa:	48 89 45 10          	mov    %rax,0x10(%rbp)
  4028fe:	48 89 55 18          	mov    %rdx,0x18(%rbp)
  402902:	48 b8 20 69 6c 6c 65 	movabs $0x6c6167656c6c6920,%rax
  402909:	67 61 6c 
  40290c:	48 ba 20 6f 72 20 75 	movabs $0x72706e7520726f20,%rdx
  402913:	6e 70 72 
  402916:	48 89 45 20          	mov    %rax,0x20(%rbp)
  40291a:	48 89 55 28          	mov    %rdx,0x28(%rbp)
  40291e:	48 b8 69 6e 74 61 62 	movabs $0x20656c6261746e69,%rax
  402925:	6c 65 20 
  402928:	48 ba 63 68 61 72 61 	movabs $0x6574636172616863,%rdx
  40292f:	63 74 65 
  402932:	48 89 45 30          	mov    %rax,0x30(%rbp)
  402936:	48 89 55 38          	mov    %rdx,0x38(%rbp)
  40293a:	66 c7 45 40 72 2e    	movw   $0x2e72,0x40(%rbp)
  402940:	c6 45 42 00          	movb   $0x0,0x42(%rbp)
  402944:	89 df                	mov    %ebx,%edi
  402946:	e8 d5 e3 ff ff       	callq  400d20 <close@plt>
  40294b:	b8 ff ff ff ff       	mov    $0xffffffff,%eax
  402950:	e9 cb fd ff ff       	jmpq   402720 <submitr+0x2d7>
  402955:	48 b8 45 72 72 6f 72 	movabs $0x43203a726f727245,%rax
  40295c:	3a 20 43 
  40295f:	48 ba 6c 69 65 6e 74 	movabs $0x6e7520746e65696c,%rdx
  402966:	20 75 6e 
  402969:	48 89 45 00          	mov    %rax,0x0(%rbp)
  40296d:	48 89 55 08          	mov    %rdx,0x8(%rbp)
  402971:	48 b8 61 62 6c 65 20 	movabs $0x206f7420656c6261,%rax
  402978:	74 6f 20 
  40297b:	48 ba 77 72 69 74 65 	movabs $0x6f74206574697277,%rdx
  402982:	20 74 6f 
  402985:	48 89 45 10          	mov    %rax,0x10(%rbp)
  402989:	48 89 55 18          	mov    %rdx,0x18(%rbp)
  40298d:	48 b8 20 74 68 65 20 	movabs $0x7365722065687420,%rax
  402994:	72 65 73 
  402997:	48 ba 75 6c 74 20 73 	movabs $0x7672657320746c75,%rdx
  40299e:	65 72 76 
  4029a1:	48 89 45 20          	mov    %rax,0x20(%rbp)
  4029a5:	48 89 55 28          	mov    %rdx,0x28(%rbp)
  4029a9:	66 c7 45 30 65 72    	movw   $0x7265,0x30(%rbp)
  4029af:	c6 45 32 00          	movb   $0x0,0x32(%rbp)
  4029b3:	89 df                	mov    %ebx,%edi
  4029b5:	e8 66 e3 ff ff       	callq  400d20 <close@plt>
  4029ba:	b8 ff ff ff ff       	mov    $0xffffffff,%eax
  4029bf:	e9 5c fd ff ff       	jmpq   402720 <submitr+0x2d7>
  4029c4:	48 b8 45 72 72 6f 72 	movabs $0x43203a726f727245,%rax
  4029cb:	3a 20 43 
  4029ce:	48 ba 6c 69 65 6e 74 	movabs $0x6e7520746e65696c,%rdx
  4029d5:	20 75 6e 
  4029d8:	48 89 45 00          	mov    %rax,0x0(%rbp)
  4029dc:	48 89 55 08          	mov    %rdx,0x8(%rbp)
  4029e0:	48 b8 61 62 6c 65 20 	movabs $0x206f7420656c6261,%rax
  4029e7:	74 6f 20 
  4029ea:	48 ba 72 65 61 64 20 	movabs $0x7269662064616572,%rdx
  4029f1:	66 69 72 
  4029f4:	48 89 45 10          	mov    %rax,0x10(%rbp)
  4029f8:	48 89 55 18          	mov    %rdx,0x18(%rbp)
  4029fc:	48 b8 73 74 20 68 65 	movabs $0x6564616568207473,%rax
  402a03:	61 64 65 
  402a06:	48 ba 72 20 66 72 6f 	movabs $0x72206d6f72662072,%rdx
  402a0d:	6d 20 72 
  402a10:	48 89 45 20          	mov    %rax,0x20(%rbp)
  402a14:	48 89 55 28          	mov    %rdx,0x28(%rbp)
  402a18:	48 b8 65 73 75 6c 74 	movabs $0x657320746c757365,%rax
  402a1f:	20 73 65 
  402a22:	48 89 45 30          	mov    %rax,0x30(%rbp)
  402a26:	c7 45 38 72 76 65 72 	movl   $0x72657672,0x38(%rbp)
  402a2d:	c6 45 3c 00          	movb   $0x0,0x3c(%rbp)
  402a31:	89 df                	mov    %ebx,%edi
  402a33:	e8 e8 e2 ff ff       	callq  400d20 <close@plt>
  402a38:	b8 ff ff ff ff       	mov    $0xffffffff,%eax
  402a3d:	e9 de fc ff ff       	jmpq   402720 <submitr+0x2d7>
  402a42:	ba 00 20 00 00       	mov    $0x2000,%edx
  402a47:	48 8d b4 24 40 20 00 	lea    0x2040(%rsp),%rsi
  402a4e:	00 
  402a4f:	48 8d 7c 24 30       	lea    0x30(%rsp),%rdi
  402a54:	e8 3b f8 ff ff       	callq  402294 <rio_readlineb>
  402a59:	48 85 c0             	test   %rax,%rax
  402a5c:	0f 8e 90 00 00 00    	jle    402af2 <submitr+0x6a9>
  402a62:	44 8b 44 24 1c       	mov    0x1c(%rsp),%r8d
  402a67:	41 81 f8 c8 00 00 00 	cmp    $0xc8,%r8d
  402a6e:	0f 85 02 01 00 00    	jne    402b76 <submitr+0x72d>
  402a74:	48 8d b4 24 40 20 00 	lea    0x2040(%rsp),%rsi
  402a7b:	00 
  402a7c:	48 89 ef             	mov    %rbp,%rdi
  402a7f:	e8 2c e2 ff ff       	callq  400cb0 <strcpy@plt>
  402a84:	89 df                	mov    %ebx,%edi
  402a86:	e8 95 e2 ff ff       	callq  400d20 <close@plt>
  402a8b:	bf 20 37 40 00       	mov    $0x403720,%edi
  402a90:	b9 04 00 00 00       	mov    $0x4,%ecx
  402a95:	48 89 ee             	mov    %rbp,%rsi
  402a98:	f3 a6                	repz cmpsb %es:(%rdi),%ds:(%rsi)
  402a9a:	0f 97 c0             	seta   %al
  402a9d:	1c 00                	sbb    $0x0,%al
  402a9f:	0f be c0             	movsbl %al,%eax
  402aa2:	85 c0                	test   %eax,%eax
  402aa4:	0f 84 76 fc ff ff    	je     402720 <submitr+0x2d7>
  402aaa:	bf 24 37 40 00       	mov    $0x403724,%edi
  402aaf:	b9 05 00 00 00       	mov    $0x5,%ecx
  402ab4:	48 89 ee             	mov    %rbp,%rsi
  402ab7:	f3 a6                	repz cmpsb %es:(%rdi),%ds:(%rsi)
  402ab9:	0f 97 c0             	seta   %al
  402abc:	1c 00                	sbb    $0x0,%al
  402abe:	0f be c0             	movsbl %al,%eax
  402ac1:	85 c0                	test   %eax,%eax
  402ac3:	0f 84 57 fc ff ff    	je     402720 <submitr+0x2d7>
  402ac9:	bf 29 37 40 00       	mov    $0x403729,%edi
  402ace:	b9 03 00 00 00       	mov    $0x3,%ecx
  402ad3:	48 89 ee             	mov    %rbp,%rsi
  402ad6:	f3 a6                	repz cmpsb %es:(%rdi),%ds:(%rsi)
  402ad8:	0f 97 c0             	seta   %al
  402adb:	1c 00                	sbb    $0x0,%al
  402add:	0f be c0             	movsbl %al,%eax
  402ae0:	85 c0                	test   %eax,%eax
  402ae2:	0f 84 38 fc ff ff    	je     402720 <submitr+0x2d7>
  402ae8:	b8 ff ff ff ff       	mov    $0xffffffff,%eax
  402aed:	e9 2e fc ff ff       	jmpq   402720 <submitr+0x2d7>
  402af2:	48 b8 45 72 72 6f 72 	movabs $0x43203a726f727245,%rax
  402af9:	3a 20 43 
  402afc:	48 ba 6c 69 65 6e 74 	movabs $0x6e7520746e65696c,%rdx
  402b03:	20 75 6e 
  402b06:	48 89 45 00          	mov    %rax,0x0(%rbp)
  402b0a:	48 89 55 08          	mov    %rdx,0x8(%rbp)
  402b0e:	48 b8 61 62 6c 65 20 	movabs $0x206f7420656c6261,%rax
  402b15:	74 6f 20 
  402b18:	48 ba 72 65 61 64 20 	movabs $0x6174732064616572,%rdx
  402b1f:	73 74 61 
  402b22:	48 89 45 10          	mov    %rax,0x10(%rbp)
  402b26:	48 89 55 18          	mov    %rdx,0x18(%rbp)
  402b2a:	48 b8 74 75 73 20 6d 	movabs $0x7373656d20737574,%rax
  402b31:	65 73 73 
  402b34:	48 ba 61 67 65 20 66 	movabs $0x6d6f726620656761,%rdx
  402b3b:	72 6f 6d 
  402b3e:	48 89 45 20          	mov    %rax,0x20(%rbp)
  402b42:	48 89 55 28          	mov    %rdx,0x28(%rbp)
  402b46:	48 b8 20 72 65 73 75 	movabs $0x20746c7573657220,%rax
  402b4d:	6c 74 20 
  402b50:	48 89 45 30          	mov    %rax,0x30(%rbp)
  402b54:	c7 45 38 73 65 72 76 	movl   $0x76726573,0x38(%rbp)
  402b5b:	66 c7 45 3c 65 72    	movw   $0x7265,0x3c(%rbp)
  402b61:	c6 45 3e 00          	movb   $0x0,0x3e(%rbp)
  402b65:	89 df                	mov    %ebx,%edi
  402b67:	e8 b4 e1 ff ff       	callq  400d20 <close@plt>
  402b6c:	b8 ff ff ff ff       	mov    $0xffffffff,%eax
  402b71:	e9 aa fb ff ff       	jmpq   402720 <submitr+0x2d7>
  402b76:	4c 8d 8c 24 40 80 00 	lea    0x8040(%rsp),%r9
  402b7d:	00 
  402b7e:	b9 d8 36 40 00       	mov    $0x4036d8,%ecx
  402b83:	48 c7 c2 ff ff ff ff 	mov    $0xffffffffffffffff,%rdx
  402b8a:	be 01 00 00 00       	mov    $0x1,%esi
  402b8f:	48 89 ef             	mov    %rbp,%rdi
  402b92:	b8 00 00 00 00       	mov    $0x0,%eax
  402b97:	e8 c4 e2 ff ff       	callq  400e60 <__sprintf_chk@plt>
  402b9c:	89 df                	mov    %ebx,%edi
  402b9e:	e8 7d e1 ff ff       	callq  400d20 <close@plt>
  402ba3:	b8 ff ff ff ff       	mov    $0xffffffff,%eax
  402ba8:	e9 73 fb ff ff       	jmpq   402720 <submitr+0x2d7>
  402bad:	e8 2e e1 ff ff       	callq  400ce0 <__stack_chk_fail@plt>

0000000000402bb2 <init_timeout>:
  402bb2:	85 ff                	test   %edi,%edi
  402bb4:	74 26                	je     402bdc <init_timeout+0x2a>
  402bb6:	53                   	push   %rbx
  402bb7:	89 fb                	mov    %edi,%ebx
  402bb9:	85 ff                	test   %edi,%edi
  402bbb:	78 18                	js     402bd5 <init_timeout+0x23>
  402bbd:	be 7d 21 40 00       	mov    $0x40217d,%esi
  402bc2:	bf 0e 00 00 00       	mov    $0xe,%edi
  402bc7:	e8 74 e1 ff ff       	callq  400d40 <signal@plt>
  402bcc:	89 df                	mov    %ebx,%edi
  402bce:	e8 3d e1 ff ff       	callq  400d10 <alarm@plt>
  402bd3:	5b                   	pop    %rbx
  402bd4:	c3                   	retq   
  402bd5:	bb 00 00 00 00       	mov    $0x0,%ebx
  402bda:	eb e1                	jmp    402bbd <init_timeout+0xb>
  402bdc:	f3 c3                	repz retq 

0000000000402bde <init_driver>:
  402bde:	55                   	push   %rbp
  402bdf:	53                   	push   %rbx
  402be0:	48 83 ec 28          	sub    $0x28,%rsp
  402be4:	48 89 fd             	mov    %rdi,%rbp
  402be7:	64 48 8b 04 25 28 00 	mov    %fs:0x28,%rax
  402bee:	00 00 
  402bf0:	48 89 44 24 18       	mov    %rax,0x18(%rsp)
  402bf5:	31 c0                	xor    %eax,%eax
  402bf7:	be 01 00 00 00       	mov    $0x1,%esi
  402bfc:	bf 0d 00 00 00       	mov    $0xd,%edi
  402c01:	e8 3a e1 ff ff       	callq  400d40 <signal@plt>
  402c06:	be 01 00 00 00       	mov    $0x1,%esi
  402c0b:	bf 1d 00 00 00       	mov    $0x1d,%edi
  402c10:	e8 2b e1 ff ff       	callq  400d40 <signal@plt>
  402c15:	be 01 00 00 00       	mov    $0x1,%esi
  402c1a:	bf 1d 00 00 00       	mov    $0x1d,%edi
  402c1f:	e8 1c e1 ff ff       	callq  400d40 <signal@plt>
  402c24:	ba 00 00 00 00       	mov    $0x0,%edx
  402c29:	be 01 00 00 00       	mov    $0x1,%esi
  402c2e:	bf 02 00 00 00       	mov    $0x2,%edi
  402c33:	e8 38 e2 ff ff       	callq  400e70 <socket@plt>
  402c38:	85 c0                	test   %eax,%eax
  402c3a:	0f 88 9c 00 00 00    	js     402cdc <init_driver+0xfe>
  402c40:	89 c3                	mov    %eax,%ebx
  402c42:	bf 2c 37 40 00       	mov    $0x40372c,%edi
  402c47:	e8 04 e1 ff ff       	callq  400d50 <gethostbyname@plt>
  402c4c:	48 85 c0             	test   %rax,%rax
  402c4f:	0f 84 d3 00 00 00    	je     402d28 <init_driver+0x14a>
  402c55:	48 c7 44 24 02 00 00 	movq   $0x0,0x2(%rsp)
  402c5c:	00 00 
  402c5e:	c7 44 24 0a 00 00 00 	movl   $0x0,0xa(%rsp)
  402c65:	00 
  402c66:	66 c7 44 24 0e 00 00 	movw   $0x0,0xe(%rsp)
  402c6d:	66 c7 04 24 02 00    	movw   $0x2,(%rsp)
  402c73:	48 63 50 14          	movslq 0x14(%rax),%rdx
  402c77:	48 8b 40 18          	mov    0x18(%rax),%rax
  402c7b:	48 8b 30             	mov    (%rax),%rsi
  402c7e:	48 8d 7c 24 04       	lea    0x4(%rsp),%rdi
  402c83:	b9 0c 00 00 00       	mov    $0xc,%ecx
  402c88:	e8 d3 e0 ff ff       	callq  400d60 <__memmove_chk@plt>
  402c8d:	66 c7 44 24 02 3c 9a 	movw   $0x9a3c,0x2(%rsp)
  402c94:	ba 10 00 00 00       	mov    $0x10,%edx
  402c99:	48 89 e6             	mov    %rsp,%rsi
  402c9c:	89 df                	mov    %ebx,%edi
  402c9e:	e8 9d e1 ff ff       	callq  400e40 <connect@plt>
  402ca3:	85 c0                	test   %eax,%eax
  402ca5:	0f 88 e5 00 00 00    	js     402d90 <init_driver+0x1b2>
  402cab:	89 df                	mov    %ebx,%edi
  402cad:	e8 6e e0 ff ff       	callq  400d20 <close@plt>
  402cb2:	66 c7 45 00 4f 4b    	movw   $0x4b4f,0x0(%rbp)
  402cb8:	c6 45 02 00          	movb   $0x0,0x2(%rbp)
  402cbc:	b8 00 00 00 00       	mov    $0x0,%eax
  402cc1:	48 8b 4c 24 18       	mov    0x18(%rsp),%rcx
  402cc6:	64 48 33 0c 25 28 00 	xor    %fs:0x28,%rcx
  402ccd:	00 00 
  402ccf:	0f 85 0e 01 00 00    	jne    402de3 <init_driver+0x205>
  402cd5:	48 83 c4 28          	add    $0x28,%rsp
  402cd9:	5b                   	pop    %rbx
  402cda:	5d                   	pop    %rbp
  402cdb:	c3                   	retq   
  402cdc:	48 b8 45 72 72 6f 72 	movabs $0x43203a726f727245,%rax
  402ce3:	3a 20 43 
  402ce6:	48 ba 6c 69 65 6e 74 	movabs $0x6e7520746e65696c,%rdx
  402ced:	20 75 6e 
  402cf0:	48 89 45 00          	mov    %rax,0x0(%rbp)
  402cf4:	48 89 55 08          	mov    %rdx,0x8(%rbp)
  402cf8:	48 b8 61 62 6c 65 20 	movabs $0x206f7420656c6261,%rax
  402cff:	74 6f 20 
  402d02:	48 ba 63 72 65 61 74 	movabs $0x7320657461657263,%rdx
  402d09:	65 20 73 
  402d0c:	48 89 45 10          	mov    %rax,0x10(%rbp)
  402d10:	48 89 55 18          	mov    %rdx,0x18(%rbp)
  402d14:	c7 45 20 6f 63 6b 65 	movl   $0x656b636f,0x20(%rbp)
  402d1b:	66 c7 45 24 74 00    	movw   $0x74,0x24(%rbp)
  402d21:	b8 ff ff ff ff       	mov    $0xffffffff,%eax
  402d26:	eb 99                	jmp    402cc1 <init_driver+0xe3>
  402d28:	48 b8 45 72 72 6f 72 	movabs $0x44203a726f727245,%rax
  402d2f:	3a 20 44 
  402d32:	48 ba 4e 53 20 69 73 	movabs $0x6e7520736920534e,%rdx
  402d39:	20 75 6e 
  402d3c:	48 89 45 00          	mov    %rax,0x0(%rbp)
  402d40:	48 89 55 08          	mov    %rdx,0x8(%rbp)
  402d44:	48 b8 61 62 6c 65 20 	movabs $0x206f7420656c6261,%rax
  402d4b:	74 6f 20 
  402d4e:	48 ba 72 65 73 6f 6c 	movabs $0x2065766c6f736572,%rdx
  402d55:	76 65 20 
  402d58:	48 89 45 10          	mov    %rax,0x10(%rbp)
  402d5c:	48 89 55 18          	mov    %rdx,0x18(%rbp)
  402d60:	48 b8 73 65 72 76 65 	movabs $0x6120726576726573,%rax
  402d67:	72 20 61 
  402d6a:	48 89 45 20          	mov    %rax,0x20(%rbp)
  402d6e:	c7 45 28 64 64 72 65 	movl   $0x65726464,0x28(%rbp)
  402d75:	66 c7 45 2c 73 73    	movw   $0x7373,0x2c(%rbp)
  402d7b:	c6 45 2e 00          	movb   $0x0,0x2e(%rbp)
  402d7f:	89 df                	mov    %ebx,%edi
  402d81:	e8 9a df ff ff       	callq  400d20 <close@plt>
  402d86:	b8 ff ff ff ff       	mov    $0xffffffff,%eax
  402d8b:	e9 31 ff ff ff       	jmpq   402cc1 <init_driver+0xe3>
  402d90:	48 b8 45 72 72 6f 72 	movabs $0x55203a726f727245,%rax
  402d97:	3a 20 55 
  402d9a:	48 ba 6e 61 62 6c 65 	movabs $0x6f7420656c62616e,%rdx
  402da1:	20 74 6f 
  402da4:	48 89 45 00          	mov    %rax,0x0(%rbp)
  402da8:	48 89 55 08          	mov    %rdx,0x8(%rbp)
  402dac:	48 b8 20 63 6f 6e 6e 	movabs $0x7463656e6e6f6320,%rax
  402db3:	65 63 74 
  402db6:	48 ba 20 74 6f 20 73 	movabs $0x76726573206f7420,%rdx
  402dbd:	65 72 76 
  402dc0:	48 89 45 10          	mov    %rax,0x10(%rbp)
  402dc4:	48 89 55 18          	mov    %rdx,0x18(%rbp)
  402dc8:	66 c7 45 20 65 72    	movw   $0x7265,0x20(%rbp)
  402dce:	c6 45 22 00          	movb   $0x0,0x22(%rbp)
  402dd2:	89 df                	mov    %ebx,%edi
  402dd4:	e8 47 df ff ff       	callq  400d20 <close@plt>
  402dd9:	b8 ff ff ff ff       	mov    $0xffffffff,%eax
  402dde:	e9 de fe ff ff       	jmpq   402cc1 <init_driver+0xe3>
  402de3:	e8 f8 de ff ff       	callq  400ce0 <__stack_chk_fail@plt>

0000000000402de8 <driver_post>:
  402de8:	53                   	push   %rbx
  402de9:	4c 89 cb             	mov    %r9,%rbx
  402dec:	45 85 c0             	test   %r8d,%r8d
  402def:	75 18                	jne    402e09 <driver_post+0x21>
  402df1:	48 85 ff             	test   %rdi,%rdi
  402df4:	74 05                	je     402dfb <driver_post+0x13>
  402df6:	80 3f 00             	cmpb   $0x0,(%rdi)
  402df9:	75 35                	jne    402e30 <driver_post+0x48>
  402dfb:	66 c7 03 4f 4b       	movw   $0x4b4f,(%rbx)
  402e00:	c6 43 02 00          	movb   $0x0,0x2(%rbx)
  402e04:	44 89 c0             	mov    %r8d,%eax
  402e07:	5b                   	pop    %rbx
  402e08:	c3                   	retq   
  402e09:	48 89 ca             	mov    %rcx,%rdx
  402e0c:	be 44 37 40 00       	mov    $0x403744,%esi
  402e11:	bf 01 00 00 00       	mov    $0x1,%edi
  402e16:	b8 00 00 00 00       	mov    $0x0,%eax
  402e1b:	e8 c0 df ff ff       	callq  400de0 <__printf_chk@plt>
  402e20:	66 c7 03 4f 4b       	movw   $0x4b4f,(%rbx)
  402e25:	c6 43 02 00          	movb   $0x0,0x2(%rbx)
  402e29:	b8 00 00 00 00       	mov    $0x0,%eax
  402e2e:	eb d7                	jmp    402e07 <driver_post+0x1f>
  402e30:	48 83 ec 08          	sub    $0x8,%rsp
  402e34:	41 51                	push   %r9
  402e36:	49 89 c9             	mov    %rcx,%r9
  402e39:	49 89 d0             	mov    %rdx,%r8
  402e3c:	48 89 f9             	mov    %rdi,%rcx
  402e3f:	48 89 f2             	mov    %rsi,%rdx
  402e42:	be 9a 3c 00 00       	mov    $0x3c9a,%esi
  402e47:	bf 2c 37 40 00       	mov    $0x40372c,%edi
  402e4c:	e8 f8 f5 ff ff       	callq  402449 <submitr>
  402e51:	48 83 c4 10          	add    $0x10,%rsp
  402e55:	eb b0                	jmp    402e07 <driver_post+0x1f>

0000000000402e57 <check>:
  402e57:	89 f8                	mov    %edi,%eax
  402e59:	c1 e8 1c             	shr    $0x1c,%eax
  402e5c:	85 c0                	test   %eax,%eax
  402e5e:	74 1d                	je     402e7d <check+0x26>
  402e60:	b9 00 00 00 00       	mov    $0x0,%ecx
  402e65:	83 f9 1f             	cmp    $0x1f,%ecx
  402e68:	7f 0d                	jg     402e77 <check+0x20>
  402e6a:	89 f8                	mov    %edi,%eax
  402e6c:	d3 e8                	shr    %cl,%eax
  402e6e:	3c 0a                	cmp    $0xa,%al
  402e70:	74 11                	je     402e83 <check+0x2c>
  402e72:	83 c1 08             	add    $0x8,%ecx
  402e75:	eb ee                	jmp    402e65 <check+0xe>
  402e77:	b8 01 00 00 00       	mov    $0x1,%eax
  402e7c:	c3                   	retq   
  402e7d:	b8 00 00 00 00       	mov    $0x0,%eax
  402e82:	c3                   	retq   
  402e83:	b8 00 00 00 00       	mov    $0x0,%eax
  402e88:	c3                   	retq   

0000000000402e89 <gencookie>:
  402e89:	53                   	push   %rbx
  402e8a:	83 c7 01             	add    $0x1,%edi
  402e8d:	e8 fe dd ff ff       	callq  400c90 <srandom@plt>
  402e92:	e8 09 df ff ff       	callq  400da0 <random@plt>
  402e97:	89 c3                	mov    %eax,%ebx
  402e99:	89 c7                	mov    %eax,%edi
  402e9b:	e8 b7 ff ff ff       	callq  402e57 <check>
  402ea0:	85 c0                	test   %eax,%eax
  402ea2:	74 ee                	je     402e92 <gencookie+0x9>
  402ea4:	89 d8                	mov    %ebx,%eax
  402ea6:	5b                   	pop    %rbx
  402ea7:	c3                   	retq   
  402ea8:	0f 1f 84 00 00 00 00 	nopl   0x0(%rax,%rax,1)
  402eaf:	00 

0000000000402eb0 <__libc_csu_init>:
  402eb0:	41 57                	push   %r15
  402eb2:	41 56                	push   %r14
  402eb4:	49 89 d7             	mov    %rdx,%r15
  402eb7:	41 55                	push   %r13
  402eb9:	41 54                	push   %r12
  402ebb:	4c 8d 25 4e 1f 20 00 	lea    0x201f4e(%rip),%r12        # 604e10 <__frame_dummy_init_array_entry>
  402ec2:	55                   	push   %rbp
  402ec3:	48 8d 2d 4e 1f 20 00 	lea    0x201f4e(%rip),%rbp        # 604e18 <__do_global_dtors_aux_fini_array_entry>
  402eca:	53                   	push   %rbx
  402ecb:	41 89 fd             	mov    %edi,%r13d
  402ece:	49 89 f6             	mov    %rsi,%r14
  402ed1:	4c 29 e5             	sub    %r12,%rbp
  402ed4:	48 83 ec 08          	sub    $0x8,%rsp
  402ed8:	48 c1 fd 03          	sar    $0x3,%rbp
  402edc:	e8 67 dd ff ff       	callq  400c48 <_init>
  402ee1:	48 85 ed             	test   %rbp,%rbp
  402ee4:	74 20                	je     402f06 <__libc_csu_init+0x56>
  402ee6:	31 db                	xor    %ebx,%ebx
  402ee8:	0f 1f 84 00 00 00 00 	nopl   0x0(%rax,%rax,1)
  402eef:	00 
  402ef0:	4c 89 fa             	mov    %r15,%rdx
  402ef3:	4c 89 f6             	mov    %r14,%rsi
  402ef6:	44 89 ef             	mov    %r13d,%edi
  402ef9:	41 ff 14 dc          	callq  *(%r12,%rbx,8)
  402efd:	48 83 c3 01          	add    $0x1,%rbx
  402f01:	48 39 dd             	cmp    %rbx,%rbp
  402f04:	75 ea                	jne    402ef0 <__libc_csu_init+0x40>
  402f06:	48 83 c4 08          	add    $0x8,%rsp
  402f0a:	5b                   	pop    %rbx
  402f0b:	5d                   	pop    %rbp
  402f0c:	41 5c                	pop    %r12
  402f0e:	41 5d                	pop    %r13
  402f10:	41 5e                	pop    %r14
  402f12:	41 5f                	pop    %r15
  402f14:	c3                   	retq   
  402f15:	90                   	nop
  402f16:	66 2e 0f 1f 84 00 00 	nopw   %cs:0x0(%rax,%rax,1)
  402f1d:	00 00 00 

0000000000402f20 <__libc_csu_fini>:
  402f20:	f3 c3                	repz retq 

Disassembly of section .fini:

0000000000402f24 <_fini>:
  402f24:	48 83 ec 08          	sub    $0x8,%rsp
  402f28:	48 83 c4 08          	add    $0x8,%rsp
  402f2c:	c3                   	retq   
